
res.o:	file format elf32-i386

SYMBOL TABLE:
00000000 l    df *ABS*	00000000 kernel.asm
0002001d l       .text	00000000 hlt
0002001d l       .text	00000000 hlt.hlt
00022fe0 l     O .data	00000004 gdt16_base.null
00022fe8 l     O .data	00000002 gdt16_base.code16
00022ff0 l     O .data	00000002 gdt16_base.data16
00022ffe l       .data	00000000 int32_end
00000000 l    df *ABS*	00000000 kernel.cpp
00000000 l    df *ABS*	00000000 stdio.cpp
00000000 l    df *ABS*	00000000 int.cpp
00000000 l    df *ABS*	00000000 ints.asm
00020f20 l       .text	00000000 sendeoi
00020f29 l       .text	00000000 sendeoi.pic1
00000000 l    df *ABS*	00000000 ints.cpp
00024c90 l     O .bss	00000004 _ZZ5irq12E11bytes_count
00024a90 l     O .bss	00000200 _ZZ5irq12E5bytes
00024c94 l     O .bss	00000004 _ZZ5irq12E1i
00000000 l    df *ABS*	00000000 ps2mouse.cpp
00000000 l    df *ABS*	00000000 port.cpp
00000000 l    df *ABS*	00000000 font.c
00000000 l    df *ABS*	00000000 int86.cpp
00000000 l    df *ABS*	00000000 stdlib.cpp
00000000 l    df *ABS*	00000000 debug_port0xe9.cpp
00000000 l    df *ABS*	00000000 font1.c
00000000 l    df *ABS*	00000000 ps2keyboard.cpp
000205d0 g     F .text	0000000e putchar
00020600 g     F .text	00000043 _Z11PIC_sendEOIh
00021c30 g     F .text	00000014 _Z8out_bytesh
00021bf0 g     F .text	0000001b _Z7in_words
00021346 g       .text	00000000 irq_12
00021094 g       .text	00000000 int_12
00022540  w    F .text._Z11mouse_writeh	0000004e _Z11mouse_writeh
000218a0 g     F .text	000001cf irq12
00021570 g     F .text	0000001a int12
0002127e g       .text	00000000 irq_7
00020ffe g       .text	00000000 int_7
00021860 g     F .text	00000017 irq10
00021530 g     F .text	0000001a int10
00021a90 g     F .text	00000017 irq14
000215b0 g     F .text	0000001a int14
0002122e g       .text	00000000 irq_5
00020fc2 g       .text	00000000 int_5
00022ffe g     O .data	00001010 font
00021820 g     F .text	00000017 irq8
000214f0 g     F .text	0000001a int8
00020870 g     F .text	0000006f _Z14IRQ_clear_maskh
00022000 g     F .text	00000022 _Z10print_charc
000205e0 g     F .text	0000000e puts
00024010 g     O .data	00000144 to_call_int_context
00021396 g       .text	00000000 irq_14
000210d0 g       .text	00000000 int_14
00022400  w    F .text._Z3maxIiET_S0_S0_	0000002f _Z3maxIiET_S0_S0_
0002112a g       .text	00000000 int_18
00021880 g     F .text	00000017 irq11
00021550 g     F .text	0000001a int11
00021fc0 g     F .text	0000003e _Z5printPc
00021166 g       .text	00000000 irq_0
00020f2c g       .text	00000000 int_0
000217c0 g     F .text	00000017 irq5
00021490 g     F .text	0000001a int5
00021e40 g     F .text	00000069 _Z6to_hexjPc
00021bd0 g     F .text	00000019 _Z7in_bytes
00022ff8 g       .data	00000000 gdt16_ptr
00021148 g       .text	00000000 int_19
00020a60 g     F .text	000004bf _Z21initialize_interruptsv
000211de g       .text	00000000 irq_3
00020f86 g       .text	00000000 int_3
00021256 g       .text	00000000 irq_6
00020fe0 g       .text	00000000 int_6
00022170 g     F .text	00000124 _Z4drawiiiPcii
000217e0 g     F .text	00000017 irq6
000214b0 g     F .text	0000001a int6
00021660 g     F .text	000000f1 irq1
00021410 g     F .text	0000001a int1
00021c10 g     F .text	00000018 _Z8in_dwords
000212f6 g       .text	00000000 irq_10
00021058 g       .text	00000000 int_10
0002131e g       .text	00000000 irq_11
00021076 g       .text	00000000 int_11
000210ee g       .text	00000000 int_16
00021f20 g     F .text	0000009c _Z6to_decjPc
00021610 g     F .text	0000001a int18
000215f0 g     F .text	0000001a int17
000215d0 g     F .text	0000001a int16
00020000 g       .text	00000000 _start
00021b00 g     F .text	000000d0 _Z13mouse_installv
00020030 g     F .text	0000059d k_main
00021c50 g     F .text	00000017 _Z8out_wordst
000220a0 g     F .text	00000071 _Z9print_binj
00021840 g     F .text	00000017 irq9
00021510 g     F .text	0000001a int9
00024c98 g     O .bss	00000004 mouse_dx
00022320 g     F .text	000000df _Z6getkeyPc
00021c90 g     F .text	00000145 _Z5int86iP4regsS0_
00021ad0 g     F .text	00000026 _Z10mouse_readv
00020970 g     F .text	00000018 _Z11pic_get_isrv
00021630 g     F .text	0000001a int19
00021a70 g     F .text	00000017 irq13
00021590 g     F .text	0000001a int13
00024a8c g     O .bss	00000004 key_i
00022120 g     F .text	00000041 _Z8font_getiii
000205f0 g     F .text	00000008 flip
000211b6 g       .text	00000000 irq_2
00020f68 g       .text	00000000 int_2
00020780 g     F .text	00000033 _Z11pic_disablev
0002118e g       .text	00000000 irq_1
00020f4a g       .text	00000000 int_1
00020020 g       .text	00000000 to_real
00024154 g     O .data	00000004 to_call_int_size
00024a88 g     O .bss	00000004 cur
00021760 g     F .text	00000017 irq2
00021430 g     F .text	0000001a int2
00024988 g     O .bss	00000100 key
00021c70 g     F .text	00000014 _Z9out_dwordsj
00024186 g     O .bss	00000800 idt
00024180 g     O .bss	00000006 IDTR
00022490  w    F .text._Z10mouse_waith	000000a8 _Z10mouse_waith
000208e0 g     F .text	00000068 _Z17__pic_get_irq_regi
000207c0 g     F .text	000000a8 _Z12IRQ_set_maskh
00021206 g       .text	00000000 irq_4
00020fa4 g       .text	00000000 int_4
000212a6 g       .text	00000000 irq_8
0002101c g       .text	00000000 int_8
00021eb0 g     F .text	00000068 _Z3powjj
00024158 g     O .bss	00000028 buf
00021800 g     F .text	00000017 irq7
000214d0 g     F .text	0000001a int7
00022460  w    F .text._Z7io_waitv	00000021 _Z7io_waitv
00022030 g     F .text	00000067 _Z9print_hexj
000213be g       .text	00000000 irq_15
00021de0 g     F .text	0000005c _Z6to_binjPc
00021650 g     F .text	00000005 irq0
000213f0 g     F .text	0000001a int0
000222a0 g     F .text	00000077 _Z5drawsPKciiPcii
0002136e g       .text	00000000 irq_13
000210b2 g       .text	00000000 int_13
00020990 g     F .text	00000020 _Z8loadIDTRv
00020950 g     F .text	00000018 _Z11pic_get_irrv
0002110c g       .text	00000000 int_17
00020650 g     F .text	00000123 _Z9PIC_remapii
00022fe0 g       .data	00000000 gdt16_base
00021ab0 g     F .text	00000017 irq15
00022430  w    F .text._Z3minIiET_S0_S0_	0000002f _Z3minIiET_S0_S0_
000212ce g       .text	00000000 irq_9
0002103a g       .text	00000000 int_9
00024c9c g     O .bss	00000004 mouse_dy
000217a0 g     F .text	00000017 irq4
00021470 g     F .text	0000001a int4
00021780 g     F .text	00000017 irq3
00021450 g     F .text	0000001a int3
000209b0 g     F .text	000000a5 _Z6addIntiPFvvEj

res.o:	file format elf32-i386

Disassembly of section .text:

00020000 <_start>:
; _start():
; /Users/jiang/Desktop/fat32-boot/kernel.asm:6
   20000: bc 00 00 01 00               	movl	$65536, %esp            # imm = 0x10000
; /Users/jiang/Desktop/fat32-boot/kernel.asm:7
   20005: bd 00 00 01 00               	movl	$65536, %ebp            # imm = 0x10000
; /Users/jiang/Desktop/fat32-boot/kernel.asm:8
   2000a: b9 a0 0f 00 00               	movl	$4000, %ecx             # imm = 0xFA0
; /Users/jiang/Desktop/fat32-boot/kernel.asm:9
   2000f: bf 00 80 0b 00               	movl	$753664, %edi           # imm = 0xB8000
; /Users/jiang/Desktop/fat32-boot/kernel.asm:10
   20014: b0 00                        	movb	$0, %al
; /Users/jiang/Desktop/fat32-boot/kernel.asm:11
   20016: f3 aa                        	rep		stosb	%al, %es:(%edi)
; /Users/jiang/Desktop/fat32-boot/kernel.asm:12
   20018: e8 13 00 00 00               	calll	0x20030 <k_main>

0002001d <hlt.hlt>:
; hlt.hlt():
; /Users/jiang/Desktop/fat32-boot/kernel.asm:14
   2001d: f4                           	hlt
; /Users/jiang/Desktop/fat32-boot/kernel.asm:15
   2001e: eb fd                        	jmp	0x2001d <hlt.hlt>

00020020 <to_real>:
; to_real():
; /Users/jiang/Desktop/fat32-boot/kernel.asm:18
   20020: fa                           	cli
; /Users/jiang/Desktop/fat32-boot/kernel.asm:19
   20021: 0f 01 15 f8 2f 02 00         	lgdtl	143352
; /Users/jiang/Desktop/fat32-boot/kernel.asm:20
   20028: ea 00 7c 00 00 08 00         	ljmpl	$8, $31744              # imm = 0x7C00
; /Users/jiang/Desktop/fat32-boot/kernel.asm:21
   2002f: c3                           	retl

00020030 <k_main>:
; k_main():
; /Users/jiang/Desktop/fat32-boot/kernel.cpp:17
   20030: 55                           	pushl	%ebp
   20031: 89 e5                        	movl	%esp, %ebp
   20033: 57                           	pushl	%edi
   20034: 56                           	pushl	%esi
   20035: 81 ec a0 00 00 00            	subl	$160, %esp
; /Users/jiang/Desktop/fat32-boot/kernel.cpp:19
   2003b: c7 45 c8 00 00 00 00         	movl	$0, -56(%ebp)
; /Users/jiang/Desktop/fat32-boot/kernel.cpp:20
   20042: c7 45 cc 00 00 00 00         	movl	$0, -52(%ebp)
; /Users/jiang/Desktop/fat32-boot/kernel.cpp:21
   20049: c7 45 d0 00 00 00 00         	movl	$0, -48(%ebp)
; /Users/jiang/Desktop/fat32-boot/kernel.cpp:22
   20050: c7 45 d4 00 00 00 00         	movl	$0, -44(%ebp)
; /Users/jiang/Desktop/fat32-boot/kernel.cpp:23
   20057: c7 45 d8 00 00 00 00         	movl	$0, -40(%ebp)
; /Users/jiang/Desktop/fat32-boot/kernel.cpp:24
   2005e: c7 45 dc 00 00 00 00         	movl	$0, -36(%ebp)
; /Users/jiang/Desktop/fat32-boot/kernel.cpp:25
   20065: c7 45 ec 00 00 00 00         	movl	$0, -20(%ebp)
; /Users/jiang/Desktop/fat32-boot/kernel.cpp:26
   2006c: c7 45 f0 00 00 00 00         	movl	$0, -16(%ebp)
; /Users/jiang/Desktop/fat32-boot/kernel.cpp:27
   20073: c7 45 c8 01 4f 00 00         	movl	$20225, -56(%ebp)       # imm = 0x4F01
; /Users/jiang/Desktop/fat32-boot/kernel.cpp:28
   2007a: c7 45 d0 18 41 00 00         	movl	$16664, -48(%ebp)       # imm = 0x4118
; /Users/jiang/Desktop/fat32-boot/kernel.cpp:30
   20081: c7 45 ec 00 10 00 00         	movl	$4096, -20(%ebp)        # imm = 0x1000
; /Users/jiang/Desktop/fat32-boot/kernel.cpp:32
   20088: c7 45 dc 30 00 00 00         	movl	$48, -36(%ebp)
; /Users/jiang/Desktop/fat32-boot/kernel.cpp:34
   2008f: 8d 4d c8                     	leal	-56(%ebp), %ecx
   20092: 8d 45 98                     	leal	-104(%ebp), %eax
   20095: c7 04 24 10 00 00 00         	movl	$16, (%esp)
   2009c: 89 4c 24 04                  	movl	%ecx, 4(%esp)
   200a0: 89 44 24 08                  	movl	%eax, 8(%esp)
   200a4: e8 e7 1b 00 00               	calll	0x21c90 <_Z5int86iP4regsS0_>
; /Users/jiang/Desktop/fat32-boot/kernel.cpp:35
   200a9: c7 45 c8 02 4f 00 00         	movl	$20226, -56(%ebp)       # imm = 0x4F02
; /Users/jiang/Desktop/fat32-boot/kernel.cpp:36
   200b0: c7 45 cc 18 41 00 00         	movl	$16664, -52(%ebp)       # imm = 0x4118
; /Users/jiang/Desktop/fat32-boot/kernel.cpp:37
   200b7: c7 45 ec 00 00 00 00         	movl	$0, -20(%ebp)
; /Users/jiang/Desktop/fat32-boot/kernel.cpp:38
   200be: c7 45 dc 00 00 00 00         	movl	$0, -36(%ebp)
; /Users/jiang/Desktop/fat32-boot/kernel.cpp:39
   200c5: 8d 4d c8                     	leal	-56(%ebp), %ecx
   200c8: 8d 45 98                     	leal	-104(%ebp), %eax
   200cb: c7 04 24 10 00 00 00         	movl	$16, (%esp)
   200d2: 89 4c 24 04                  	movl	%ecx, 4(%esp)
   200d6: 89 44 24 08                  	movl	%eax, 8(%esp)
   200da: e8 b1 1b 00 00               	calll	0x21c90 <_Z5int86iP4regsS0_>
; /Users/jiang/Desktop/fat32-boot/kernel.cpp:40
   200df: b8 30 00 01 00               	movl	$65584, %eax            # imm = 0x10030
   200e4: 89 45 94                     	movl	%eax, -108(%ebp)
; /Users/jiang/Desktop/fat32-boot/kernel.cpp:41
   200e7: b8 30 00 01 00               	movl	$65584, %eax            # imm = 0x10030
   200ec: 66 8b 40 10                  	movw	16(%eax), %ax
   200f0: 66 89 45 92                  	movw	%ax, -110(%ebp)
; /Users/jiang/Desktop/fat32-boot/kernel.cpp:42
   200f4: b8 30 00 01 00               	movl	$65584, %eax            # imm = 0x10030
   200f9: 66 8b 40 12                  	movw	18(%eax), %ax
   200fd: 66 89 45 90                  	movw	%ax, -112(%ebp)
; /Users/jiang/Desktop/fat32-boot/kernel.cpp:43
   20101: b8 30 00 01 00               	movl	$65584, %eax            # imm = 0x10030
   20106: 66 8b 40 14                  	movw	20(%eax), %ax
   2010a: 66 89 45 8e                  	movw	%ax, -114(%ebp)
; /Users/jiang/Desktop/fat32-boot/kernel.cpp:44
   2010e: b8 30 00 01 00               	movl	$65584, %eax            # imm = 0x10030
   20113: 8a 40 19                     	movb	25(%eax), %al
   20116: 88 45 8d                     	movb	%al, -115(%ebp)
; /Users/jiang/Desktop/fat32-boot/kernel.cpp:45
   20119: b8 30 00 01 00               	movl	$65584, %eax            # imm = 0x10030
   2011e: 8b 40 28                     	movl	40(%eax), %eax
   20121: 89 45 88                     	movl	%eax, -120(%ebp)
; /Users/jiang/Desktop/fat32-boot/kernel.cpp:46
   20124: c7 05 8c 4a 02 00 00 00 00 00	movl	$0, 150156
   2012e: c7 05 88 4a 02 00 00 00 00 00	movl	$0, 150152
; /Users/jiang/Desktop/fat32-boot/kernel.cpp:47
   20138: e8 23 09 00 00               	calll	0x20a60 <_Z21initialize_interruptsv>
; /Users/jiang/Desktop/fat32-boot/kernel.cpp:48
   2013d: e8 be 19 00 00               	calll	0x21b00 <_Z13mouse_installv>
; /Users/jiang/Desktop/fat32-boot/kernel.cpp:49
   20142: c7 04 24 64 00 00 00         	movl	$100, (%esp)
   20149: c7 44 24 04 ad 00 00 00      	movl	$173, 4(%esp)
   20151: e8 da 1a 00 00               	calll	0x21c30 <_Z8out_bytesh>
; /Users/jiang/Desktop/fat32-boot/kernel.cpp:50
   20156: c7 04 24 64 00 00 00         	movl	$100, (%esp)
   2015d: e8 6e 1a 00 00               	calll	0x21bd0 <_Z7in_bytes>
   20162: 0f b6 c0                     	movzbl	%al, %eax
   20165: 83 e0 01                     	andl	$1, %eax
   20168: 83 f8 00                     	cmpl	$0, %eax
   2016b: 0f 84 3f 00 00 00            	je	0x201b0 <k_main+0x180>
; /Users/jiang/Desktop/fat32-boot/kernel.cpp:51
   20171: c7 04 24 60 00 00 00         	movl	$96, (%esp)
   20178: e8 53 1a 00 00               	calll	0x21bd0 <_Z7in_bytes>
   2017d: 88 45 87                     	movb	%al, -121(%ebp)
; /Users/jiang/Desktop/fat32-boot/kernel.cpp:52
   20180: c6 45 83 28                  	movb	$40, -125(%ebp)
   20184: 8a 45 87                     	movb	-121(%ebp), %al
   20187: 88 45 84                     	movb	%al, -124(%ebp)
   2018a: c6 45 85 29                  	movb	$41, -123(%ebp)
   2018e: c6 45 86 0a                  	movb	$10, -122(%ebp)
; /Users/jiang/Desktop/fat32-boot/kernel.cpp:53
   20192: 8d 05 8e 25 02 00            	leal	140686, %eax
   20198: 89 04 24                     	movl	%eax, (%esp)
   2019b: e8 20 1e 00 00               	calll	0x21fc0 <_Z5printPc>
; /Users/jiang/Desktop/fat32-boot/kernel.cpp:54
   201a0: 8d 45 83                     	leal	-125(%ebp), %eax
   201a3: 89 04 24                     	movl	%eax, (%esp)
   201a6: e8 15 1e 00 00               	calll	0x21fc0 <_Z5printPc>
; /Users/jiang/Desktop/fat32-boot/kernel.cpp:50
   201ab: e9 a6 ff ff ff               	jmp	0x20156 <k_main+0x126>
; /Users/jiang/Desktop/fat32-boot/kernel.cpp:56
   201b0: c7 04 24 64 00 00 00         	movl	$100, (%esp)
   201b7: c7 44 24 04 ae 00 00 00      	movl	$174, 4(%esp)
   201bf: e8 6c 1a 00 00               	calll	0x21c30 <_Z8out_bytesh>
; /Users/jiang/Desktop/fat32-boot/kernel.cpp:57
   201c4: c6 45 82 00                  	movb	$0, -126(%ebp)
; /Users/jiang/Desktop/fat32-boot/kernel.cpp:58
   201c8: c7 04 24 60 00 00 00         	movl	$96, (%esp)
   201cf: c7 44 24 04 f0 00 00 00      	movl	$240, 4(%esp)
   201d7: e8 54 1a 00 00               	calll	0x21c30 <_Z8out_bytesh>
; /Users/jiang/Desktop/fat32-boot/kernel.cpp:59
   201dc: 0f be 45 82                  	movsbl	-126(%ebp), %eax
   201e0: 3d fa 00 00 00               	cmpl	$250, %eax
   201e5: 0f 84 51 00 00 00            	je	0x2023c <k_main+0x20c>
; /Users/jiang/Desktop/fat32-boot/kernel.cpp:60
   201eb: e9 00 00 00 00               	jmp	0x201f0 <k_main+0x1c0>
   201f0: 8d 45 82                     	leal	-126(%ebp), %eax
   201f3: 89 04 24                     	movl	%eax, (%esp)
   201f6: e8 25 21 00 00               	calll	0x22320 <_Z6getkeyPc>
   201fb: 34 ff                        	xorb	$-1, %al
   201fd: a8 01                        	testb	$1, %al
   201ff: 0f 85 05 00 00 00            	jne	0x2020a <k_main+0x1da>
   20205: e9 05 00 00 00               	jmp	0x2020f <k_main+0x1df>
   2020a: e9 e1 ff ff ff               	jmp	0x201f0 <k_main+0x1c0>
; /Users/jiang/Desktop/fat32-boot/kernel.cpp:62
   2020f: 8d 05 9c 25 02 00            	leal	140700, %eax
   20215: 89 04 24                     	movl	%eax, (%esp)
   20218: e8 a3 1d 00 00               	calll	0x21fc0 <_Z5printPc>
; /Users/jiang/Desktop/fat32-boot/kernel.cpp:63
   2021d: 0f be 45 82                  	movsbl	-126(%ebp), %eax
   20221: 89 04 24                     	movl	%eax, (%esp)
   20224: e8 07 1e 00 00               	calll	0x22030 <_Z9print_hexj>
; /Users/jiang/Desktop/fat32-boot/kernel.cpp:64
   20229: 8d 05 7f 27 02 00            	leal	141183, %eax
   2022f: 89 04 24                     	movl	%eax, (%esp)
   20232: e8 89 1d 00 00               	calll	0x21fc0 <_Z5printPc>
; /Users/jiang/Desktop/fat32-boot/kernel.cpp:59
   20237: e9 a0 ff ff ff               	jmp	0x201dc <k_main+0x1ac>
; /Users/jiang/Desktop/fat32-boot/kernel.cpp:66
   2023c: c7 04 24 60 00 00 00         	movl	$96, (%esp)
   20243: c7 44 24 04 01 00 00 00      	movl	$1, 4(%esp)
   2024b: e8 e0 19 00 00               	calll	0x21c30 <_Z8out_bytesh>
; /Users/jiang/Desktop/fat32-boot/kernel.cpp:67
   20250: 0f be 45 82                  	movsbl	-126(%ebp), %eax
   20254: 3d fa 00 00 00               	cmpl	$250, %eax
   20259: 0f 84 51 00 00 00            	je	0x202b0 <k_main+0x280>
; /Users/jiang/Desktop/fat32-boot/kernel.cpp:68
   2025f: e9 00 00 00 00               	jmp	0x20264 <k_main+0x234>
   20264: 8d 45 82                     	leal	-126(%ebp), %eax
   20267: 89 04 24                     	movl	%eax, (%esp)
   2026a: e8 b1 20 00 00               	calll	0x22320 <_Z6getkeyPc>
   2026f: 34 ff                        	xorb	$-1, %al
   20271: a8 01                        	testb	$1, %al
   20273: 0f 85 05 00 00 00            	jne	0x2027e <k_main+0x24e>
   20279: e9 05 00 00 00               	jmp	0x20283 <k_main+0x253>
   2027e: e9 e1 ff ff ff               	jmp	0x20264 <k_main+0x234>
; /Users/jiang/Desktop/fat32-boot/kernel.cpp:70
   20283: 8d 05 9c 25 02 00            	leal	140700, %eax
   20289: 89 04 24                     	movl	%eax, (%esp)
   2028c: e8 2f 1d 00 00               	calll	0x21fc0 <_Z5printPc>
; /Users/jiang/Desktop/fat32-boot/kernel.cpp:71
   20291: 0f be 45 82                  	movsbl	-126(%ebp), %eax
   20295: 89 04 24                     	movl	%eax, (%esp)
   20298: e8 93 1d 00 00               	calll	0x22030 <_Z9print_hexj>
; /Users/jiang/Desktop/fat32-boot/kernel.cpp:72
   2029d: 8d 05 7f 27 02 00            	leal	141183, %eax
   202a3: 89 04 24                     	movl	%eax, (%esp)
   202a6: e8 15 1d 00 00               	calll	0x21fc0 <_Z5printPc>
; /Users/jiang/Desktop/fat32-boot/kernel.cpp:67
   202ab: e9 a0 ff ff ff               	jmp	0x20250 <k_main+0x220>
; /Users/jiang/Desktop/fat32-boot/kernel.cpp:74
   202b0: c7 85 7c ff ff ff 64 00 00 00	movl	$100, -132(%ebp)
   202ba: c7 85 78 ff ff ff 64 00 00 00	movl	$100, -136(%ebp)
; /Users/jiang/Desktop/fat32-boot/kernel.cpp:75
   202c4: 8b 85 7c ff ff ff            	movl	-132(%ebp), %eax
   202ca: 89 85 74 ff ff ff            	movl	%eax, -140(%ebp)
   202d0: 8b 85 78 ff ff ff            	movl	-136(%ebp), %eax
   202d6: 89 85 70 ff ff ff            	movl	%eax, -144(%ebp)
; /Users/jiang/Desktop/fat32-boot/kernel.cpp:77
   202dc: 8d 45 82                     	leal	-126(%ebp), %eax
   202df: 89 04 24                     	movl	%eax, (%esp)
   202e2: e8 39 20 00 00               	calll	0x22320 <_Z6getkeyPc>
   202e7: a8 01                        	testb	$1, %al
   202e9: 0f 85 05 00 00 00            	jne	0x202f4 <k_main+0x2c4>
   202ef: e9 82 00 00 00               	jmp	0x20376 <k_main+0x346>
; /Users/jiang/Desktop/fat32-boot/kernel.cpp:78
   202f4: 8b 55 88                     	movl	-120(%ebp), %edx
   202f7: 0f b7 4d 92                  	movzwl	-110(%ebp), %ecx
   202fb: 0f b6 45 8d                  	movzbl	-115(%ebp), %eax
   202ff: 8d 35 a6 25 02 00            	leal	140710, %esi
   20305: 31 ff                        	xorl	%edi, %edi
   20307: 89 34 24                     	movl	%esi, (%esp)
   2030a: c7 44 24 04 28 00 00 00      	movl	$40, 4(%esp)
   20312: c7 44 24 08 00 00 00 00      	movl	$0, 8(%esp)
   2031a: 89 54 24 0c                  	movl	%edx, 12(%esp)
   2031e: 89 4c 24 10                  	movl	%ecx, 16(%esp)
   20322: 89 44 24 14                  	movl	%eax, 20(%esp)
   20326: e8 75 1f 00 00               	calll	0x222a0 <_Z5drawsPKciiPcii>
; /Users/jiang/Desktop/fat32-boot/kernel.cpp:79
   2032b: 0f be 4d 82                  	movsbl	-126(%ebp), %ecx
   2032f: 8d 05 58 41 02 00            	leal	147800, %eax
   20335: 89 0c 24                     	movl	%ecx, (%esp)
   20338: 89 44 24 04                  	movl	%eax, 4(%esp)
   2033c: e8 ff 1a 00 00               	calll	0x21e40 <_Z6to_hexjPc>
; /Users/jiang/Desktop/fat32-boot/kernel.cpp:80
   20341: 8b 55 88                     	movl	-120(%ebp), %edx
   20344: 0f b7 4d 92                  	movzwl	-110(%ebp), %ecx
   20348: 0f b6 45 8d                  	movzbl	-115(%ebp), %eax
   2034c: 8d 35 58 41 02 00            	leal	147800, %esi
   20352: 89 34 24                     	movl	%esi, (%esp)
   20355: c7 44 24 04 28 00 00 00      	movl	$40, 4(%esp)
   2035d: c7 44 24 08 40 00 00 00      	movl	$64, 8(%esp)
   20365: 89 54 24 0c                  	movl	%edx, 12(%esp)
   20369: 89 4c 24 10                  	movl	%ecx, 16(%esp)
   2036d: 89 44 24 14                  	movl	%eax, 20(%esp)
   20371: e8 2a 1f 00 00               	calll	0x222a0 <_Z5drawsPKciiPcii>
; /Users/jiang/Desktop/fat32-boot/kernel.cpp:82
   20376: a1 9c 4c 02 00               	movl	150684, %eax
   2037b: 03 85 78 ff ff ff            	addl	-136(%ebp), %eax
   20381: 89 85 78 ff ff ff            	movl	%eax, -136(%ebp)
; /Users/jiang/Desktop/fat32-boot/kernel.cpp:83
   20387: a1 98 4c 02 00               	movl	150680, %eax
   2038c: 03 85 7c ff ff ff            	addl	-132(%ebp), %eax
   20392: 89 85 7c ff ff ff            	movl	%eax, -132(%ebp)
; /Users/jiang/Desktop/fat32-boot/kernel.cpp:84
   20398: 8b 8d 7c ff ff ff            	movl	-132(%ebp), %ecx
   2039e: 0f b7 45 8e                  	movzwl	-114(%ebp), %eax
   203a2: 83 e8 08                     	subl	$8, %eax
   203a5: 83 e8 01                     	subl	$1, %eax
   203a8: 89 0c 24                     	movl	%ecx, (%esp)
   203ab: 89 44 24 04                  	movl	%eax, 4(%esp)
   203af: e8 7c 20 00 00               	calll	0x22430 <_Z3minIiET_S0_S0_>
   203b4: 31 c9                        	xorl	%ecx, %ecx
   203b6: c7 04 24 00 00 00 00         	movl	$0, (%esp)
   203bd: 89 44 24 04                  	movl	%eax, 4(%esp)
   203c1: e8 3a 20 00 00               	calll	0x22400 <_Z3maxIiET_S0_S0_>
   203c6: 89 85 7c ff ff ff            	movl	%eax, -132(%ebp)
; /Users/jiang/Desktop/fat32-boot/kernel.cpp:85
   203cc: 8b 8d 78 ff ff ff            	movl	-136(%ebp), %ecx
   203d2: 0f b7 45 90                  	movzwl	-112(%ebp), %eax
   203d6: 83 e8 10                     	subl	$16, %eax
   203d9: 83 e8 01                     	subl	$1, %eax
   203dc: 89 0c 24                     	movl	%ecx, (%esp)
   203df: 89 44 24 04                  	movl	%eax, 4(%esp)
   203e3: e8 48 20 00 00               	calll	0x22430 <_Z3minIiET_S0_S0_>
   203e8: 31 c9                        	xorl	%ecx, %ecx
   203ea: c7 04 24 00 00 00 00         	movl	$0, (%esp)
   203f1: 89 44 24 04                  	movl	%eax, 4(%esp)
   203f5: e8 06 20 00 00               	calll	0x22400 <_Z3maxIiET_S0_S0_>
   203fa: 89 85 78 ff ff ff            	movl	%eax, -136(%ebp)
; /Users/jiang/Desktop/fat32-boot/kernel.cpp:86
   20400: c7 05 98 4c 02 00 00 00 00 00	movl	$0, 150680
; /Users/jiang/Desktop/fat32-boot/kernel.cpp:87
   2040a: c7 05 9c 4c 02 00 00 00 00 00	movl	$0, 150684
; /Users/jiang/Desktop/fat32-boot/kernel.cpp:88
   20414: 8b 55 88                     	movl	-120(%ebp), %edx
   20417: 0f b7 4d 92                  	movzwl	-110(%ebp), %ecx
   2041b: 0f b6 45 8d                  	movzbl	-115(%ebp), %eax
   2041f: 8d 35 df 27 02 00            	leal	141279, %esi
   20425: 31 ff                        	xorl	%edi, %edi
   20427: 89 34 24                     	movl	%esi, (%esp)
   2042a: c7 44 24 04 00 00 00 00      	movl	$0, 4(%esp)
   20432: c7 44 24 08 00 00 00 00      	movl	$0, 8(%esp)
   2043a: 89 54 24 0c                  	movl	%edx, 12(%esp)
   2043e: 89 4c 24 10                  	movl	%ecx, 16(%esp)
   20442: 89 44 24 14                  	movl	%eax, 20(%esp)
   20446: e8 55 1e 00 00               	calll	0x222a0 <_Z5drawsPKciiPcii>
; /Users/jiang/Desktop/fat32-boot/kernel.cpp:89
   2044b: 8b 8d 7c ff ff ff            	movl	-132(%ebp), %ecx
   20451: 8d 05 58 41 02 00            	leal	147800, %eax
   20457: 89 0c 24                     	movl	%ecx, (%esp)
   2045a: 89 44 24 04                  	movl	%eax, 4(%esp)
   2045e: e8 bd 1a 00 00               	calll	0x21f20 <_Z6to_decjPc>
; /Users/jiang/Desktop/fat32-boot/kernel.cpp:90
   20463: 8b 55 88                     	movl	-120(%ebp), %edx
   20466: 0f b7 4d 92                  	movzwl	-110(%ebp), %ecx
   2046a: 0f b6 45 8d                  	movzbl	-115(%ebp), %eax
   2046e: 8d 35 58 41 02 00            	leal	147800, %esi
   20474: 31 ff                        	xorl	%edi, %edi
   20476: 89 34 24                     	movl	%esi, (%esp)
   20479: c7 44 24 04 00 00 00 00      	movl	$0, 4(%esp)
   20481: c7 44 24 08 20 00 00 00      	movl	$32, 8(%esp)
   20489: 89 54 24 0c                  	movl	%edx, 12(%esp)
   2048d: 89 4c 24 10                  	movl	%ecx, 16(%esp)
   20491: 89 44 24 14                  	movl	%eax, 20(%esp)
   20495: e8 06 1e 00 00               	calll	0x222a0 <_Z5drawsPKciiPcii>
; /Users/jiang/Desktop/fat32-boot/kernel.cpp:91
   2049a: 8b 55 88                     	movl	-120(%ebp), %edx
   2049d: 0f b7 4d 92                  	movzwl	-110(%ebp), %ecx
   204a1: 0f b6 45 8d                  	movzbl	-115(%ebp), %eax
   204a5: 8d 35 e3 27 02 00            	leal	141283, %esi
   204ab: 31 ff                        	xorl	%edi, %edi
   204ad: 89 34 24                     	movl	%esi, (%esp)
   204b0: c7 44 24 04 14 00 00 00      	movl	$20, 4(%esp)
   204b8: c7 44 24 08 00 00 00 00      	movl	$0, 8(%esp)
   204c0: 89 54 24 0c                  	movl	%edx, 12(%esp)
   204c4: 89 4c 24 10                  	movl	%ecx, 16(%esp)
   204c8: 89 44 24 14                  	movl	%eax, 20(%esp)
   204cc: e8 cf 1d 00 00               	calll	0x222a0 <_Z5drawsPKciiPcii>
; /Users/jiang/Desktop/fat32-boot/kernel.cpp:92
   204d1: 8b 8d 78 ff ff ff            	movl	-136(%ebp), %ecx
   204d7: 8d 05 58 41 02 00            	leal	147800, %eax
   204dd: 89 0c 24                     	movl	%ecx, (%esp)
   204e0: 89 44 24 04                  	movl	%eax, 4(%esp)
   204e4: e8 37 1a 00 00               	calll	0x21f20 <_Z6to_decjPc>
; /Users/jiang/Desktop/fat32-boot/kernel.cpp:93
   204e9: 8b 55 88                     	movl	-120(%ebp), %edx
   204ec: 0f b7 4d 92                  	movzwl	-110(%ebp), %ecx
   204f0: 0f b6 45 8d                  	movzbl	-115(%ebp), %eax
   204f4: 8d 35 58 41 02 00            	leal	147800, %esi
   204fa: 89 34 24                     	movl	%esi, (%esp)
   204fd: c7 44 24 04 14 00 00 00      	movl	$20, 4(%esp)
   20505: c7 44 24 08 20 00 00 00      	movl	$32, 8(%esp)
   2050d: 89 54 24 0c                  	movl	%edx, 12(%esp)
   20511: 89 4c 24 10                  	movl	%ecx, 16(%esp)
   20515: 89 44 24 14                  	movl	%eax, 20(%esp)
   20519: e8 82 1d 00 00               	calll	0x222a0 <_Z5drawsPKciiPcii>
; /Users/jiang/Desktop/fat32-boot/kernel.cpp:94
   2051e: 8b 85 74 ff ff ff            	movl	-140(%ebp), %eax
   20524: 3b 85 7c ff ff ff            	cmpl	-132(%ebp), %eax
   2052a: 0f 85 12 00 00 00            	jne	0x20542 <k_main+0x512>
   20530: 8b 85 70 ff ff ff            	movl	-144(%ebp), %eax
   20536: 3b 85 78 ff ff ff            	cmpl	-136(%ebp), %eax
   2053c: 0f 84 86 00 00 00            	je	0x205c8 <k_main+0x598>
; /Users/jiang/Desktop/fat32-boot/kernel.cpp:95
   20542: 8b bd 74 ff ff ff            	movl	-140(%ebp), %edi
   20548: 8b b5 70 ff ff ff            	movl	-144(%ebp), %esi
   2054e: 8b 55 88                     	movl	-120(%ebp), %edx
   20551: 0f b7 4d 92                  	movzwl	-110(%ebp), %ecx
   20555: 0f b6 45 8d                  	movzbl	-115(%ebp), %eax
   20559: c7 04 24 20 00 00 00         	movl	$32, (%esp)
   20560: 89 7c 24 04                  	movl	%edi, 4(%esp)
   20564: 89 74 24 08                  	movl	%esi, 8(%esp)
   20568: 89 54 24 0c                  	movl	%edx, 12(%esp)
   2056c: 89 4c 24 10                  	movl	%ecx, 16(%esp)
   20570: 89 44 24 14                  	movl	%eax, 20(%esp)
   20574: e8 f7 1b 00 00               	calll	0x22170 <_Z4drawiiiPcii>
; /Users/jiang/Desktop/fat32-boot/kernel.cpp:96
   20579: 8b bd 7c ff ff ff            	movl	-132(%ebp), %edi
   2057f: 8b b5 78 ff ff ff            	movl	-136(%ebp), %esi
   20585: 8b 55 88                     	movl	-120(%ebp), %edx
   20588: 0f b7 4d 92                  	movzwl	-110(%ebp), %ecx
   2058c: 0f b6 45 8d                  	movzbl	-115(%ebp), %eax
   20590: c7 04 24 58 00 00 00         	movl	$88, (%esp)
   20597: 89 7c 24 04                  	movl	%edi, 4(%esp)
   2059b: 89 74 24 08                  	movl	%esi, 8(%esp)
   2059f: 89 54 24 0c                  	movl	%edx, 12(%esp)
   205a3: 89 4c 24 10                  	movl	%ecx, 16(%esp)
   205a7: 89 44 24 14                  	movl	%eax, 20(%esp)
   205ab: e8 c0 1b 00 00               	calll	0x22170 <_Z4drawiiiPcii>
; /Users/jiang/Desktop/fat32-boot/kernel.cpp:97
   205b0: 8b 85 7c ff ff ff            	movl	-132(%ebp), %eax
   205b6: 89 85 74 ff ff ff            	movl	%eax, -140(%ebp)
; /Users/jiang/Desktop/fat32-boot/kernel.cpp:98
   205bc: 8b 85 78 ff ff ff            	movl	-136(%ebp), %eax
   205c2: 89 85 70 ff ff ff            	movl	%eax, -144(%ebp)
; /Users/jiang/Desktop/fat32-boot/kernel.cpp:76
   205c8: e9 0f fd ff ff               	jmp	0x202dc <k_main+0x2ac>
   205cd: 66 90                        	nop
   205cf: 90                           	nop

000205d0 <putchar>:
; putchar():
; /Users/jiang/Desktop/fat32-boot/stdio.cpp:2
   205d0: 55                           	pushl	%ebp
   205d1: 89 e5                        	movl	%esp, %ebp
   205d3: 8b 45 10                     	movl	16(%ebp), %eax
   205d6: 8a 45 0c                     	movb	12(%ebp), %al
   205d9: 8a 45 08                     	movb	8(%ebp), %al
; /Users/jiang/Desktop/fat32-boot/stdio.cpp:5
   205dc: 5d                           	popl	%ebp
   205dd: c3                           	retl
   205de: 66 90                        	nop

000205e0 <puts>:
; puts():
; /Users/jiang/Desktop/fat32-boot/stdio.cpp:6
   205e0: 55                           	pushl	%ebp
   205e1: 89 e5                        	movl	%esp, %ebp
   205e3: 8b 45 10                     	movl	16(%ebp), %eax
   205e6: 8a 45 0c                     	movb	12(%ebp), %al
   205e9: 8b 45 08                     	movl	8(%ebp), %eax
; /Users/jiang/Desktop/fat32-boot/stdio.cpp:12
   205ec: 5d                           	popl	%ebp
   205ed: c3                           	retl
   205ee: 66 90                        	nop

000205f0 <flip>:
; flip():
; /Users/jiang/Desktop/fat32-boot/stdio.cpp:13
   205f0: 55                           	pushl	%ebp
   205f1: 89 e5                        	movl	%esp, %ebp
   205f3: 8a 45 08                     	movb	8(%ebp), %al
; /Users/jiang/Desktop/fat32-boot/stdio.cpp:21
   205f6: 5d                           	popl	%ebp
   205f7: c3                           	retl
   205f8: 66 90                        	nop
   205fa: 66 90                        	nop
   205fc: 66 90                        	nop
   205fe: 66 90                        	nop

00020600 <_Z11PIC_sendEOIh>:
; _Z11PIC_sendEOIh():
; /Users/jiang/Desktop/fat32-boot/int.cpp:4
   20600: 55                           	pushl	%ebp
   20601: 89 e5                        	movl	%esp, %ebp
   20603: 83 ec 08                     	subl	$8, %esp
   20606: 8a 45 08                     	movb	8(%ebp), %al
; /Users/jiang/Desktop/fat32-boot/int.cpp:5
   20609: 0f b6 45 08                  	movzbl	8(%ebp), %eax
   2060d: 83 f8 08                     	cmpl	$8, %eax
   20610: 0f 8c 14 00 00 00            	jl	0x2062a <_Z11PIC_sendEOIh+0x2a>
; /Users/jiang/Desktop/fat32-boot/int.cpp:6
   20616: c7 04 24 a0 00 00 00         	movl	$160, (%esp)
   2061d: c7 44 24 04 20 00 00 00      	movl	$32, 4(%esp)
   20625: e8 06 16 00 00               	calll	0x21c30 <_Z8out_bytesh>
; /Users/jiang/Desktop/fat32-boot/int.cpp:8
   2062a: c7 04 24 20 00 00 00         	movl	$32, (%esp)
   20631: c7 44 24 04 20 00 00 00      	movl	$32, 4(%esp)
   20639: e8 f2 15 00 00               	calll	0x21c30 <_Z8out_bytesh>
; /Users/jiang/Desktop/fat32-boot/int.cpp:9
   2063e: 83 c4 08                     	addl	$8, %esp
   20641: 5d                           	popl	%ebp
   20642: c3                           	retl
   20643: 66 66 66 66 2e 0f 1f 84 00 00 00 00 00       	nopw	%cs:(%eax,%eax)

00020650 <_Z9PIC_remapii>:
; _Z9PIC_remapii():
; /Users/jiang/Desktop/fat32-boot/int.cpp:17
   20650: 55                           	pushl	%ebp
   20651: 89 e5                        	movl	%esp, %ebp
   20653: 83 ec 0c                     	subl	$12, %esp
   20656: 8b 45 0c                     	movl	12(%ebp), %eax
   20659: 8b 45 08                     	movl	8(%ebp), %eax
; /Users/jiang/Desktop/fat32-boot/int.cpp:20
   2065c: c7 04 24 21 00 00 00         	movl	$33, (%esp)
   20663: e8 68 15 00 00               	calll	0x21bd0 <_Z7in_bytes>
   20668: 88 45 ff                     	movb	%al, -1(%ebp)
; /Users/jiang/Desktop/fat32-boot/int.cpp:21
   2066b: c7 04 24 a1 00 00 00         	movl	$161, (%esp)
   20672: e8 59 15 00 00               	calll	0x21bd0 <_Z7in_bytes>
   20677: 88 45 fe                     	movb	%al, -2(%ebp)
; /Users/jiang/Desktop/fat32-boot/int.cpp:23
   2067a: c7 04 24 20 00 00 00         	movl	$32, (%esp)
   20681: c7 44 24 04 11 00 00 00      	movl	$17, 4(%esp)
   20689: e8 a2 15 00 00               	calll	0x21c30 <_Z8out_bytesh>
; /Users/jiang/Desktop/fat32-boot/int.cpp:26
   2068e: e8 cd 1d 00 00               	calll	0x22460 <_Z7io_waitv>
; /Users/jiang/Desktop/fat32-boot/int.cpp:27
   20693: c7 04 24 a0 00 00 00         	movl	$160, (%esp)
   2069a: c7 44 24 04 11 00 00 00      	movl	$17, 4(%esp)
   206a2: e8 89 15 00 00               	calll	0x21c30 <_Z8out_bytesh>
; /Users/jiang/Desktop/fat32-boot/int.cpp:28
   206a7: e8 b4 1d 00 00               	calll	0x22460 <_Z7io_waitv>
; /Users/jiang/Desktop/fat32-boot/int.cpp:29
   206ac: 8b 45 08                     	movl	8(%ebp), %eax
   206af: c7 04 24 21 00 00 00         	movl	$33, (%esp)
   206b6: 0f b6 c0                     	movzbl	%al, %eax
   206b9: 89 44 24 04                  	movl	%eax, 4(%esp)
   206bd: e8 6e 15 00 00               	calll	0x21c30 <_Z8out_bytesh>
; /Users/jiang/Desktop/fat32-boot/int.cpp:30
   206c2: e8 99 1d 00 00               	calll	0x22460 <_Z7io_waitv>
; /Users/jiang/Desktop/fat32-boot/int.cpp:31
   206c7: 8b 45 0c                     	movl	12(%ebp), %eax
   206ca: c7 04 24 a1 00 00 00         	movl	$161, (%esp)
   206d1: 0f b6 c0                     	movzbl	%al, %eax
   206d4: 89 44 24 04                  	movl	%eax, 4(%esp)
   206d8: e8 53 15 00 00               	calll	0x21c30 <_Z8out_bytesh>
; /Users/jiang/Desktop/fat32-boot/int.cpp:32
   206dd: e8 7e 1d 00 00               	calll	0x22460 <_Z7io_waitv>
; /Users/jiang/Desktop/fat32-boot/int.cpp:33
   206e2: c7 04 24 21 00 00 00         	movl	$33, (%esp)
   206e9: c7 44 24 04 04 00 00 00      	movl	$4, 4(%esp)
   206f1: e8 3a 15 00 00               	calll	0x21c30 <_Z8out_bytesh>
; /Users/jiang/Desktop/fat32-boot/int.cpp:36
   206f6: e8 65 1d 00 00               	calll	0x22460 <_Z7io_waitv>
; /Users/jiang/Desktop/fat32-boot/int.cpp:37
   206fb: c7 04 24 a1 00 00 00         	movl	$161, (%esp)
   20702: c7 44 24 04 02 00 00 00      	movl	$2, 4(%esp)
   2070a: e8 21 15 00 00               	calll	0x21c30 <_Z8out_bytesh>
; /Users/jiang/Desktop/fat32-boot/int.cpp:38
   2070f: e8 4c 1d 00 00               	calll	0x22460 <_Z7io_waitv>
; /Users/jiang/Desktop/fat32-boot/int.cpp:40
   20714: c7 04 24 21 00 00 00         	movl	$33, (%esp)
   2071b: c7 44 24 04 01 00 00 00      	movl	$1, 4(%esp)
   20723: e8 08 15 00 00               	calll	0x21c30 <_Z8out_bytesh>
; /Users/jiang/Desktop/fat32-boot/int.cpp:42
   20728: e8 33 1d 00 00               	calll	0x22460 <_Z7io_waitv>
; /Users/jiang/Desktop/fat32-boot/int.cpp:43
   2072d: c7 04 24 a1 00 00 00         	movl	$161, (%esp)
   20734: c7 44 24 04 01 00 00 00      	movl	$1, 4(%esp)
   2073c: e8 ef 14 00 00               	calll	0x21c30 <_Z8out_bytesh>
; /Users/jiang/Desktop/fat32-boot/int.cpp:44
   20741: e8 1a 1d 00 00               	calll	0x22460 <_Z7io_waitv>
; /Users/jiang/Desktop/fat32-boot/int.cpp:46
   20746: c7 04 24 21 00 00 00         	movl	$33, (%esp)
   2074d: 0f b6 45 ff                  	movzbl	-1(%ebp), %eax
   20751: 89 44 24 04                  	movl	%eax, 4(%esp)
   20755: e8 d6 14 00 00               	calll	0x21c30 <_Z8out_bytesh>
; /Users/jiang/Desktop/fat32-boot/int.cpp:47
   2075a: c7 04 24 a1 00 00 00         	movl	$161, (%esp)
   20761: 0f b6 45 fe                  	movzbl	-2(%ebp), %eax
   20765: 89 44 24 04                  	movl	%eax, 4(%esp)
   20769: e8 c2 14 00 00               	calll	0x21c30 <_Z8out_bytesh>
; /Users/jiang/Desktop/fat32-boot/int.cpp:48
   2076e: 83 c4 0c                     	addl	$12, %esp
   20771: 5d                           	popl	%ebp
   20772: c3                           	retl
   20773: 66 66 66 66 2e 0f 1f 84 00 00 00 00 00       	nopw	%cs:(%eax,%eax)

00020780 <_Z11pic_disablev>:
; _Z11pic_disablev():
; /Users/jiang/Desktop/fat32-boot/int.cpp:50
   20780: 55                           	pushl	%ebp
   20781: 89 e5                        	movl	%esp, %ebp
   20783: 83 ec 08                     	subl	$8, %esp
; /Users/jiang/Desktop/fat32-boot/int.cpp:51
   20786: c7 04 24 21 00 00 00         	movl	$33, (%esp)
   2078d: c7 44 24 04 ff 00 00 00      	movl	$255, 4(%esp)
   20795: e8 96 14 00 00               	calll	0x21c30 <_Z8out_bytesh>
; /Users/jiang/Desktop/fat32-boot/int.cpp:52
   2079a: c7 04 24 a1 00 00 00         	movl	$161, (%esp)
   207a1: c7 44 24 04 ff 00 00 00      	movl	$255, 4(%esp)
   207a9: e8 82 14 00 00               	calll	0x21c30 <_Z8out_bytesh>
; /Users/jiang/Desktop/fat32-boot/int.cpp:53
   207ae: 83 c4 08                     	addl	$8, %esp
   207b1: 5d                           	popl	%ebp
   207b2: c3                           	retl
   207b3: 66 66 66 66 2e 0f 1f 84 00 00 00 00 00       	nopw	%cs:(%eax,%eax)

000207c0 <_Z12IRQ_set_maskh>:
; _Z12IRQ_set_maskh():
; /Users/jiang/Desktop/fat32-boot/int.cpp:55
   207c0: 55                           	pushl	%ebp
   207c1: 89 e5                        	movl	%esp, %ebp
   207c3: 83 ec 0c                     	subl	$12, %esp
   207c6: 8a 45 08                     	movb	8(%ebp), %al
; /Users/jiang/Desktop/fat32-boot/int.cpp:56
   207c9: 0f b6 45 08                  	movzbl	8(%ebp), %eax
   207cd: 3d ff 00 00 00               	cmpl	$255, %eax
   207d2: 0f 85 2d 00 00 00            	jne	0x20805 <_Z12IRQ_set_maskh+0x45>
; /Users/jiang/Desktop/fat32-boot/int.cpp:57
   207d8: c7 04 24 21 00 00 00         	movl	$33, (%esp)
   207df: c7 44 24 04 ff 00 00 00      	movl	$255, 4(%esp)
   207e7: e8 44 14 00 00               	calll	0x21c30 <_Z8out_bytesh>
; /Users/jiang/Desktop/fat32-boot/int.cpp:58
   207ec: c7 04 24 a1 00 00 00         	movl	$161, (%esp)
   207f3: c7 44 24 04 ff 00 00 00      	movl	$255, 4(%esp)
   207fb: e8 30 14 00 00               	calll	0x21c30 <_Z8out_bytesh>
; /Users/jiang/Desktop/fat32-boot/int.cpp:59
   20800: e9 5e 00 00 00               	jmp	0x20863 <_Z12IRQ_set_maskh+0xa3>
; /Users/jiang/Desktop/fat32-boot/int.cpp:64
   20805: 0f b6 45 08                  	movzbl	8(%ebp), %eax
   20809: 83 f8 08                     	cmpl	$8, %eax
   2080c: 0f 8d 0b 00 00 00            	jge	0x2081d <_Z12IRQ_set_maskh+0x5d>
; /Users/jiang/Desktop/fat32-boot/int.cpp:65
   20812: 66 c7 45 fe 21 00            	movw	$33, -2(%ebp)
; /Users/jiang/Desktop/fat32-boot/int.cpp:66
   20818: e9 10 00 00 00               	jmp	0x2082d <_Z12IRQ_set_maskh+0x6d>
; /Users/jiang/Desktop/fat32-boot/int.cpp:67
   2081d: 66 c7 45 fe a1 00            	movw	$161, -2(%ebp)
; /Users/jiang/Desktop/fat32-boot/int.cpp:68
   20823: 0f b6 45 08                  	movzbl	8(%ebp), %eax
   20827: 83 e8 08                     	subl	$8, %eax
   2082a: 88 45 08                     	movb	%al, 8(%ebp)
; /Users/jiang/Desktop/fat32-boot/int.cpp:70
   2082d: 0f bf 45 fe                  	movswl	-2(%ebp), %eax
   20831: 89 04 24                     	movl	%eax, (%esp)
   20834: e8 97 13 00 00               	calll	0x21bd0 <_Z7in_bytes>
   20839: 0f b6 c0                     	movzbl	%al, %eax
   2083c: 0f b6 4d 08                  	movzbl	8(%ebp), %ecx
   20840: ba 01 00 00 00               	movl	$1, %edx
   20845: d3 e2                        	shll	%cl, %edx
   20847: 89 d1                        	movl	%edx, %ecx
   20849: 09 c8                        	orl	%ecx, %eax
   2084b: 88 45 fd                     	movb	%al, -3(%ebp)
; /Users/jiang/Desktop/fat32-boot/int.cpp:71
   2084e: 66 8b 45 fe                  	movw	-2(%ebp), %ax
   20852: 98                           	cwtl
   20853: 89 04 24                     	movl	%eax, (%esp)
   20856: 0f b6 45 fd                  	movzbl	-3(%ebp), %eax
   2085a: 89 44 24 04                  	movl	%eax, 4(%esp)
   2085e: e8 cd 13 00 00               	calll	0x21c30 <_Z8out_bytesh>
; /Users/jiang/Desktop/fat32-boot/int.cpp:72
   20863: 83 c4 0c                     	addl	$12, %esp
   20866: 5d                           	popl	%ebp
   20867: c3                           	retl
   20868: 0f 1f 84 00 00 00 00 00      	nopl	(%eax,%eax)

00020870 <_Z14IRQ_clear_maskh>:
; _Z14IRQ_clear_maskh():
; /Users/jiang/Desktop/fat32-boot/int.cpp:74
   20870: 55                           	pushl	%ebp
   20871: 89 e5                        	movl	%esp, %ebp
   20873: 83 ec 0c                     	subl	$12, %esp
   20876: 8a 45 08                     	movb	8(%ebp), %al
; /Users/jiang/Desktop/fat32-boot/int.cpp:78
   20879: 0f b6 45 08                  	movzbl	8(%ebp), %eax
   2087d: 83 f8 08                     	cmpl	$8, %eax
   20880: 0f 8d 0b 00 00 00            	jge	0x20891 <_Z14IRQ_clear_maskh+0x21>
; /Users/jiang/Desktop/fat32-boot/int.cpp:79
   20886: 66 c7 45 fe 21 00            	movw	$33, -2(%ebp)
; /Users/jiang/Desktop/fat32-boot/int.cpp:80
   2088c: e9 10 00 00 00               	jmp	0x208a1 <_Z14IRQ_clear_maskh+0x31>
; /Users/jiang/Desktop/fat32-boot/int.cpp:81
   20891: 66 c7 45 fe a1 00            	movw	$161, -2(%ebp)
; /Users/jiang/Desktop/fat32-boot/int.cpp:82
   20897: 0f b6 45 08                  	movzbl	8(%ebp), %eax
   2089b: 83 e8 08                     	subl	$8, %eax
   2089e: 88 45 08                     	movb	%al, 8(%ebp)
; /Users/jiang/Desktop/fat32-boot/int.cpp:84
   208a1: 0f bf 45 fe                  	movswl	-2(%ebp), %eax
   208a5: 89 04 24                     	movl	%eax, (%esp)
   208a8: e8 23 13 00 00               	calll	0x21bd0 <_Z7in_bytes>
   208ad: 0f b6 c0                     	movzbl	%al, %eax
   208b0: 0f b6 4d 08                  	movzbl	8(%ebp), %ecx
   208b4: ba 01 00 00 00               	movl	$1, %edx
   208b9: d3 e2                        	shll	%cl, %edx
   208bb: 89 d1                        	movl	%edx, %ecx
   208bd: 83 f1 ff                     	xorl	$-1, %ecx
   208c0: 21 c8                        	andl	%ecx, %eax
   208c2: 88 45 fd                     	movb	%al, -3(%ebp)
; /Users/jiang/Desktop/fat32-boot/int.cpp:85
   208c5: 66 8b 45 fe                  	movw	-2(%ebp), %ax
   208c9: 98                           	cwtl
   208ca: 89 04 24                     	movl	%eax, (%esp)
   208cd: 0f b6 45 fd                  	movzbl	-3(%ebp), %eax
   208d1: 89 44 24 04                  	movl	%eax, 4(%esp)
   208d5: e8 56 13 00 00               	calll	0x21c30 <_Z8out_bytesh>
; /Users/jiang/Desktop/fat32-boot/int.cpp:86
   208da: 83 c4 0c                     	addl	$12, %esp
   208dd: 5d                           	popl	%ebp
   208de: c3                           	retl
   208df: 90                           	nop

000208e0 <_Z17__pic_get_irq_regi>:
; _Z17__pic_get_irq_regi():
; /Users/jiang/Desktop/fat32-boot/int.cpp:89
   208e0: 55                           	pushl	%ebp
   208e1: 89 e5                        	movl	%esp, %ebp
   208e3: 83 ec 0c                     	subl	$12, %esp
   208e6: 8b 45 08                     	movl	8(%ebp), %eax
; /Users/jiang/Desktop/fat32-boot/int.cpp:92
   208e9: 8b 45 08                     	movl	8(%ebp), %eax
   208ec: c7 04 24 20 00 00 00         	movl	$32, (%esp)
   208f3: 0f b6 c0                     	movzbl	%al, %eax
   208f6: 89 44 24 04                  	movl	%eax, 4(%esp)
   208fa: e8 31 13 00 00               	calll	0x21c30 <_Z8out_bytesh>
; /Users/jiang/Desktop/fat32-boot/int.cpp:93
   208ff: 8b 45 08                     	movl	8(%ebp), %eax
   20902: c7 04 24 a0 00 00 00         	movl	$160, (%esp)
   20909: 0f b6 c0                     	movzbl	%al, %eax
   2090c: 89 44 24 04                  	movl	%eax, 4(%esp)
   20910: e8 1b 13 00 00               	calll	0x21c30 <_Z8out_bytesh>
; /Users/jiang/Desktop/fat32-boot/int.cpp:94
   20915: c7 04 24 a0 00 00 00         	movl	$160, (%esp)
   2091c: e8 af 12 00 00               	calll	0x21bd0 <_Z7in_bytes>
   20921: 0f b6 c0                     	movzbl	%al, %eax
   20924: c1 e0 08                     	shll	$8, %eax
   20927: 89 45 fc                     	movl	%eax, -4(%ebp)
   2092a: c7 04 24 20 00 00 00         	movl	$32, (%esp)
   20931: e8 9a 12 00 00               	calll	0x21bd0 <_Z7in_bytes>
   20936: 88 c1                        	movb	%al, %cl
   20938: 8b 45 fc                     	movl	-4(%ebp), %eax
   2093b: 0f b6 c9                     	movzbl	%cl, %ecx
   2093e: 09 c8                        	orl	%ecx, %eax
   20940: 0f b7 c0                     	movzwl	%ax, %eax
   20943: 83 c4 0c                     	addl	$12, %esp
   20946: 5d                           	popl	%ebp
   20947: c3                           	retl
   20948: 0f 1f 84 00 00 00 00 00      	nopl	(%eax,%eax)

00020950 <_Z11pic_get_irrv>:
; _Z11pic_get_irrv():
; /Users/jiang/Desktop/fat32-boot/int.cpp:98
   20950: 55                           	pushl	%ebp
   20951: 89 e5                        	movl	%esp, %ebp
   20953: 50                           	pushl	%eax
   20954: c7 04 24 0a 00 00 00         	movl	$10, (%esp)
   2095b: e8 80 ff ff ff               	calll	0x208e0 <_Z17__pic_get_irq_regi>
   20960: 0f b7 c0                     	movzwl	%ax, %eax
   20963: 83 c4 04                     	addl	$4, %esp
   20966: 5d                           	popl	%ebp
   20967: c3                           	retl
   20968: 0f 1f 84 00 00 00 00 00      	nopl	(%eax,%eax)

00020970 <_Z11pic_get_isrv>:
; _Z11pic_get_isrv():
; /Users/jiang/Desktop/fat32-boot/int.cpp:101
   20970: 55                           	pushl	%ebp
   20971: 89 e5                        	movl	%esp, %ebp
   20973: 50                           	pushl	%eax
   20974: c7 04 24 0b 00 00 00         	movl	$11, (%esp)
   2097b: e8 60 ff ff ff               	calll	0x208e0 <_Z17__pic_get_irq_regi>
   20980: 0f b7 c0                     	movzwl	%ax, %eax
   20983: 83 c4 04                     	addl	$4, %esp
   20986: 5d                           	popl	%ebp
   20987: c3                           	retl
   20988: 0f 1f 84 00 00 00 00 00      	nopl	(%eax,%eax)

00020990 <_Z8loadIDTRv>:
; _Z8loadIDTRv():
; /Users/jiang/Desktop/fat32-boot/int.cpp:105
   20990: 55                           	pushl	%ebp
   20991: 89 e5                        	movl	%esp, %ebp
; /Users/jiang/Desktop/fat32-boot/int.cpp:106
   20993: 66 c7 05 80 41 02 00 00 07   	movw	$1792, 147840           # imm = 0x700
; /Users/jiang/Desktop/fat32-boot/int.cpp:107
   2099c: 8d 05 86 41 02 00            	leal	147846, %eax
   209a2: a3 82 41 02 00               	movl	%eax, 147842
; /Users/jiang/Desktop/fat32-boot/int.cpp:108
   209a7: 0f 01 1d 80 41 02 00         	lidtl	147840
; /Users/jiang/Desktop/fat32-boot/int.cpp:109
   209ae: 5d                           	popl	%ebp
   209af: c3                           	retl

000209b0 <_Z6addIntiPFvvEj>:
; _Z6addIntiPFvvEj():
; /Users/jiang/Desktop/fat32-boot/int.cpp:111
   209b0: 55                           	pushl	%ebp
   209b1: 89 e5                        	movl	%esp, %ebp
   209b3: 83 ec 0c                     	subl	$12, %esp
   209b6: 8b 45 10                     	movl	16(%ebp), %eax
   209b9: 8b 45 0c                     	movl	12(%ebp), %eax
   209bc: 8b 45 08                     	movl	8(%ebp), %eax
; /Users/jiang/Desktop/fat32-boot/int.cpp:112
   209bf: 66 c7 45 fe 08 00            	movw	$8, -2(%ebp)
; /Users/jiang/Desktop/fat32-boot/int.cpp:113
   209c5: 66 8c c8                     	movw	%cs, %ax
   209c8: 66 89 45 fe                  	movw	%ax, -2(%ebp)
; /Users/jiang/Desktop/fat32-boot/int.cpp:115
   209cc: 8b 45 10                     	movl	16(%ebp), %eax
   209cf: 89 45 f4                     	movl	%eax, -12(%ebp)
   209d2: 85 c0                        	testl	%eax, %eax
   209d4: 0f 84 17 00 00 00            	je	0x209f1 <_Z6addIntiPFvvEj+0x41>
   209da: e9 00 00 00 00               	jmp	0x209df <_Z6addIntiPFvvEj+0x2f>
   209df: 8b 45 f4                     	movl	-12(%ebp), %eax
; /Users/jiang/Desktop/fat32-boot/int.cpp:115
   209e2: 48                           	decl	%eax
   209e3: 83 e8 03                     	subl	$3, %eax
   209e6: 0f 82 10 00 00 00            	jb	0x209fc <_Z6addIntiPFvvEj+0x4c>
   209ec: e9 11 00 00 00               	jmp	0x20a02 <_Z6addIntiPFvvEj+0x52>
; /Users/jiang/Desktop/fat32-boot/int.cpp:117
   209f1: 66 c7 45 fc 00 8e            	movw	$36352, -4(%ebp)        # imm = 0x8E00
; /Users/jiang/Desktop/fat32-boot/int.cpp:118
   209f7: e9 06 00 00 00               	jmp	0x20a02 <_Z6addIntiPFvvEj+0x52>
; /Users/jiang/Desktop/fat32-boot/int.cpp:122
   209fc: 66 c7 45 fc 00 ee            	movw	$60928, -4(%ebp)        # imm = 0xEE00
; /Users/jiang/Desktop/fat32-boot/int.cpp:125
   20a02: 8b 45 0c                     	movl	12(%ebp), %eax
   20a05: 89 45 f8                     	movl	%eax, -8(%ebp)
; /Users/jiang/Desktop/fat32-boot/int.cpp:126
   20a08: 8b 45 f8                     	movl	-8(%ebp), %eax
   20a0b: 25 ff ff 00 00               	andl	$65535, %eax            # imm = 0xFFFF
   20a10: 66 89 c1                     	movw	%ax, %cx
   20a13: 8b 45 08                     	movl	8(%ebp), %eax
   20a16: 66 89 0c c5 86 41 02 00      	movw	%cx, 147846(,%eax,8)
; /Users/jiang/Desktop/fat32-boot/int.cpp:127
   20a1e: 66 8b 4d fe                  	movw	-2(%ebp), %cx
   20a22: 8b 45 08                     	movl	8(%ebp), %eax
   20a25: 66 89 0c c5 88 41 02 00      	movw	%cx, 147848(,%eax,8)
; /Users/jiang/Desktop/fat32-boot/int.cpp:128
   20a2d: 66 8b 4d fc                  	movw	-4(%ebp), %cx
   20a31: 8b 45 08                     	movl	8(%ebp), %eax
   20a34: 66 89 0c c5 8a 41 02 00      	movw	%cx, 147850(,%eax,8)
; /Users/jiang/Desktop/fat32-boot/int.cpp:129
   20a3c: 8b 45 f8                     	movl	-8(%ebp), %eax
   20a3f: c1 e8 10                     	shrl	$16, %eax
   20a42: 66 89 c1                     	movw	%ax, %cx
   20a45: 8b 45 08                     	movl	8(%ebp), %eax
   20a48: 66 89 0c c5 8c 41 02 00      	movw	%cx, 147852(,%eax,8)
; /Users/jiang/Desktop/fat32-boot/int.cpp:130
   20a50: 83 c4 0c                     	addl	$12, %esp
   20a53: 5d                           	popl	%ebp
   20a54: c3                           	retl
   20a55: 66 66 2e 0f 1f 84 00 00 00 00 00     	nopw	%cs:(%eax,%eax)

00020a60 <_Z21initialize_interruptsv>:
; _Z21initialize_interruptsv():
; /Users/jiang/Desktop/fat32-boot/int.cpp:131
   20a60: 55                           	pushl	%ebp
   20a61: 89 e5                        	movl	%esp, %ebp
   20a63: 83 ec 10                     	subl	$16, %esp
; /Users/jiang/Desktop/fat32-boot/int.cpp:132
   20a66: fa                           	cli
; /Users/jiang/Desktop/fat32-boot/int.cpp:133
   20a67: c7 04 24 20 00 00 00         	movl	$32, (%esp)
   20a6e: c7 44 24 04 28 00 00 00      	movl	$40, 4(%esp)
   20a76: e8 d5 fb ff ff               	calll	0x20650 <_Z9PIC_remapii>
; /Users/jiang/Desktop/fat32-boot/int.cpp:134
   20a7b: c7 04 24 ff 00 00 00         	movl	$255, (%esp)
   20a82: e8 39 fd ff ff               	calll	0x207c0 <_Z12IRQ_set_maskh>
; /Users/jiang/Desktop/fat32-boot/int.cpp:135
   20a87: e8 04 ff ff ff               	calll	0x20990 <_Z8loadIDTRv>
; /Users/jiang/Desktop/fat32-boot/int.cpp:136
   20a8c: 31 c0                        	xorl	%eax, %eax
   20a8e: 8d 05 2c 0f 02 00            	leal	134956, %eax
   20a94: c7 04 24 00 00 00 00         	movl	$0, (%esp)
   20a9b: 89 44 24 04                  	movl	%eax, 4(%esp)
   20a9f: c7 44 24 08 00 00 00 00      	movl	$0, 8(%esp)
   20aa7: e8 04 ff ff ff               	calll	0x209b0 <_Z6addIntiPFvvEj>
; /Users/jiang/Desktop/fat32-boot/int.cpp:137
   20aac: 8d 05 4a 0f 02 00            	leal	134986, %eax
   20ab2: 31 c9                        	xorl	%ecx, %ecx
   20ab4: c7 04 24 01 00 00 00         	movl	$1, (%esp)
   20abb: 89 44 24 04                  	movl	%eax, 4(%esp)
   20abf: c7 44 24 08 00 00 00 00      	movl	$0, 8(%esp)
   20ac7: e8 e4 fe ff ff               	calll	0x209b0 <_Z6addIntiPFvvEj>
; /Users/jiang/Desktop/fat32-boot/int.cpp:138
   20acc: 8d 05 68 0f 02 00            	leal	135016, %eax
   20ad2: 31 c9                        	xorl	%ecx, %ecx
   20ad4: c7 04 24 02 00 00 00         	movl	$2, (%esp)
   20adb: 89 44 24 04                  	movl	%eax, 4(%esp)
   20adf: c7 44 24 08 00 00 00 00      	movl	$0, 8(%esp)
   20ae7: e8 c4 fe ff ff               	calll	0x209b0 <_Z6addIntiPFvvEj>
; /Users/jiang/Desktop/fat32-boot/int.cpp:139
   20aec: 8d 05 86 0f 02 00            	leal	135046, %eax
   20af2: 31 c9                        	xorl	%ecx, %ecx
   20af4: c7 04 24 03 00 00 00         	movl	$3, (%esp)
   20afb: 89 44 24 04                  	movl	%eax, 4(%esp)
   20aff: c7 44 24 08 00 00 00 00      	movl	$0, 8(%esp)
   20b07: e8 a4 fe ff ff               	calll	0x209b0 <_Z6addIntiPFvvEj>
; /Users/jiang/Desktop/fat32-boot/int.cpp:140
   20b0c: 8d 05 a4 0f 02 00            	leal	135076, %eax
   20b12: 31 c9                        	xorl	%ecx, %ecx
   20b14: c7 04 24 04 00 00 00         	movl	$4, (%esp)
   20b1b: 89 44 24 04                  	movl	%eax, 4(%esp)
   20b1f: c7 44 24 08 00 00 00 00      	movl	$0, 8(%esp)
   20b27: e8 84 fe ff ff               	calll	0x209b0 <_Z6addIntiPFvvEj>
; /Users/jiang/Desktop/fat32-boot/int.cpp:141
   20b2c: 8d 05 c2 0f 02 00            	leal	135106, %eax
   20b32: 31 c9                        	xorl	%ecx, %ecx
   20b34: c7 04 24 05 00 00 00         	movl	$5, (%esp)
   20b3b: 89 44 24 04                  	movl	%eax, 4(%esp)
   20b3f: c7 44 24 08 00 00 00 00      	movl	$0, 8(%esp)
   20b47: e8 64 fe ff ff               	calll	0x209b0 <_Z6addIntiPFvvEj>
; /Users/jiang/Desktop/fat32-boot/int.cpp:142
   20b4c: 8d 05 e0 0f 02 00            	leal	135136, %eax
   20b52: 31 c9                        	xorl	%ecx, %ecx
   20b54: c7 04 24 06 00 00 00         	movl	$6, (%esp)
   20b5b: 89 44 24 04                  	movl	%eax, 4(%esp)
   20b5f: c7 44 24 08 00 00 00 00      	movl	$0, 8(%esp)
   20b67: e8 44 fe ff ff               	calll	0x209b0 <_Z6addIntiPFvvEj>
; /Users/jiang/Desktop/fat32-boot/int.cpp:143
   20b6c: 8d 05 fe 0f 02 00            	leal	135166, %eax
   20b72: 31 c9                        	xorl	%ecx, %ecx
   20b74: c7 04 24 07 00 00 00         	movl	$7, (%esp)
   20b7b: 89 44 24 04                  	movl	%eax, 4(%esp)
   20b7f: c7 44 24 08 00 00 00 00      	movl	$0, 8(%esp)
   20b87: e8 24 fe ff ff               	calll	0x209b0 <_Z6addIntiPFvvEj>
; /Users/jiang/Desktop/fat32-boot/int.cpp:144
   20b8c: 8d 05 1c 10 02 00            	leal	135196, %eax
   20b92: 31 c9                        	xorl	%ecx, %ecx
   20b94: c7 04 24 08 00 00 00         	movl	$8, (%esp)
   20b9b: 89 44 24 04                  	movl	%eax, 4(%esp)
   20b9f: c7 44 24 08 00 00 00 00      	movl	$0, 8(%esp)
   20ba7: e8 04 fe ff ff               	calll	0x209b0 <_Z6addIntiPFvvEj>
; /Users/jiang/Desktop/fat32-boot/int.cpp:145
   20bac: 8d 05 3a 10 02 00            	leal	135226, %eax
   20bb2: 31 c9                        	xorl	%ecx, %ecx
   20bb4: c7 04 24 09 00 00 00         	movl	$9, (%esp)
   20bbb: 89 44 24 04                  	movl	%eax, 4(%esp)
   20bbf: c7 44 24 08 00 00 00 00      	movl	$0, 8(%esp)
   20bc7: e8 e4 fd ff ff               	calll	0x209b0 <_Z6addIntiPFvvEj>
; /Users/jiang/Desktop/fat32-boot/int.cpp:146
   20bcc: 8d 05 58 10 02 00            	leal	135256, %eax
   20bd2: 31 c9                        	xorl	%ecx, %ecx
   20bd4: c7 04 24 0a 00 00 00         	movl	$10, (%esp)
   20bdb: 89 44 24 04                  	movl	%eax, 4(%esp)
   20bdf: c7 44 24 08 00 00 00 00      	movl	$0, 8(%esp)
   20be7: e8 c4 fd ff ff               	calll	0x209b0 <_Z6addIntiPFvvEj>
; /Users/jiang/Desktop/fat32-boot/int.cpp:147
   20bec: 8d 05 76 10 02 00            	leal	135286, %eax
   20bf2: 31 c9                        	xorl	%ecx, %ecx
   20bf4: c7 04 24 0b 00 00 00         	movl	$11, (%esp)
   20bfb: 89 44 24 04                  	movl	%eax, 4(%esp)
   20bff: c7 44 24 08 00 00 00 00      	movl	$0, 8(%esp)
   20c07: e8 a4 fd ff ff               	calll	0x209b0 <_Z6addIntiPFvvEj>
; /Users/jiang/Desktop/fat32-boot/int.cpp:148
   20c0c: 8d 05 94 10 02 00            	leal	135316, %eax
   20c12: 31 c9                        	xorl	%ecx, %ecx
   20c14: c7 04 24 0c 00 00 00         	movl	$12, (%esp)
   20c1b: 89 44 24 04                  	movl	%eax, 4(%esp)
   20c1f: c7 44 24 08 00 00 00 00      	movl	$0, 8(%esp)
   20c27: e8 84 fd ff ff               	calll	0x209b0 <_Z6addIntiPFvvEj>
; /Users/jiang/Desktop/fat32-boot/int.cpp:149
   20c2c: 8d 05 b2 10 02 00            	leal	135346, %eax
   20c32: 31 c9                        	xorl	%ecx, %ecx
   20c34: c7 04 24 0d 00 00 00         	movl	$13, (%esp)
   20c3b: 89 44 24 04                  	movl	%eax, 4(%esp)
   20c3f: c7 44 24 08 00 00 00 00      	movl	$0, 8(%esp)
   20c47: e8 64 fd ff ff               	calll	0x209b0 <_Z6addIntiPFvvEj>
; /Users/jiang/Desktop/fat32-boot/int.cpp:150
   20c4c: 8d 05 d0 10 02 00            	leal	135376, %eax
   20c52: 31 c9                        	xorl	%ecx, %ecx
   20c54: c7 04 24 0e 00 00 00         	movl	$14, (%esp)
   20c5b: 89 44 24 04                  	movl	%eax, 4(%esp)
   20c5f: c7 44 24 08 00 00 00 00      	movl	$0, 8(%esp)
   20c67: e8 44 fd ff ff               	calll	0x209b0 <_Z6addIntiPFvvEj>
; /Users/jiang/Desktop/fat32-boot/int.cpp:151
   20c6c: 8d 05 ee 10 02 00            	leal	135406, %eax
   20c72: 31 c9                        	xorl	%ecx, %ecx
   20c74: c7 04 24 10 00 00 00         	movl	$16, (%esp)
   20c7b: 89 44 24 04                  	movl	%eax, 4(%esp)
   20c7f: c7 44 24 08 00 00 00 00      	movl	$0, 8(%esp)
   20c87: e8 24 fd ff ff               	calll	0x209b0 <_Z6addIntiPFvvEj>
; /Users/jiang/Desktop/fat32-boot/int.cpp:152
   20c8c: 8d 05 0c 11 02 00            	leal	135436, %eax
   20c92: 31 c9                        	xorl	%ecx, %ecx
   20c94: c7 04 24 11 00 00 00         	movl	$17, (%esp)
   20c9b: 89 44 24 04                  	movl	%eax, 4(%esp)
   20c9f: c7 44 24 08 00 00 00 00      	movl	$0, 8(%esp)
   20ca7: e8 04 fd ff ff               	calll	0x209b0 <_Z6addIntiPFvvEj>
; /Users/jiang/Desktop/fat32-boot/int.cpp:153
   20cac: 8d 05 2a 11 02 00            	leal	135466, %eax
   20cb2: 31 c9                        	xorl	%ecx, %ecx
   20cb4: c7 04 24 12 00 00 00         	movl	$18, (%esp)
   20cbb: 89 44 24 04                  	movl	%eax, 4(%esp)
   20cbf: c7 44 24 08 00 00 00 00      	movl	$0, 8(%esp)
   20cc7: e8 e4 fc ff ff               	calll	0x209b0 <_Z6addIntiPFvvEj>
; /Users/jiang/Desktop/fat32-boot/int.cpp:154
   20ccc: 8d 05 48 11 02 00            	leal	135496, %eax
   20cd2: 31 c9                        	xorl	%ecx, %ecx
   20cd4: c7 04 24 13 00 00 00         	movl	$19, (%esp)
   20cdb: 89 44 24 04                  	movl	%eax, 4(%esp)
   20cdf: c7 44 24 08 00 00 00 00      	movl	$0, 8(%esp)
   20ce7: e8 c4 fc ff ff               	calll	0x209b0 <_Z6addIntiPFvvEj>
; /Users/jiang/Desktop/fat32-boot/int.cpp:155
   20cec: 8d 05 66 11 02 00            	leal	135526, %eax
   20cf2: 31 c9                        	xorl	%ecx, %ecx
   20cf4: c7 04 24 20 00 00 00         	movl	$32, (%esp)
   20cfb: 89 44 24 04                  	movl	%eax, 4(%esp)
   20cff: c7 44 24 08 00 00 00 00      	movl	$0, 8(%esp)
   20d07: e8 a4 fc ff ff               	calll	0x209b0 <_Z6addIntiPFvvEj>
; /Users/jiang/Desktop/fat32-boot/int.cpp:156
   20d0c: 8d 05 8e 11 02 00            	leal	135566, %eax
   20d12: 31 c9                        	xorl	%ecx, %ecx
   20d14: c7 04 24 21 00 00 00         	movl	$33, (%esp)
   20d1b: 89 44 24 04                  	movl	%eax, 4(%esp)
   20d1f: c7 44 24 08 00 00 00 00      	movl	$0, 8(%esp)
   20d27: e8 84 fc ff ff               	calll	0x209b0 <_Z6addIntiPFvvEj>
; /Users/jiang/Desktop/fat32-boot/int.cpp:157
   20d2c: 8d 05 b6 11 02 00            	leal	135606, %eax
   20d32: 31 c9                        	xorl	%ecx, %ecx
   20d34: c7 04 24 22 00 00 00         	movl	$34, (%esp)
   20d3b: 89 44 24 04                  	movl	%eax, 4(%esp)
   20d3f: c7 44 24 08 00 00 00 00      	movl	$0, 8(%esp)
   20d47: e8 64 fc ff ff               	calll	0x209b0 <_Z6addIntiPFvvEj>
; /Users/jiang/Desktop/fat32-boot/int.cpp:158
   20d4c: 8d 05 de 11 02 00            	leal	135646, %eax
   20d52: 31 c9                        	xorl	%ecx, %ecx
   20d54: c7 04 24 23 00 00 00         	movl	$35, (%esp)
   20d5b: 89 44 24 04                  	movl	%eax, 4(%esp)
   20d5f: c7 44 24 08 00 00 00 00      	movl	$0, 8(%esp)
   20d67: e8 44 fc ff ff               	calll	0x209b0 <_Z6addIntiPFvvEj>
; /Users/jiang/Desktop/fat32-boot/int.cpp:159
   20d6c: 8d 05 06 12 02 00            	leal	135686, %eax
   20d72: 31 c9                        	xorl	%ecx, %ecx
   20d74: c7 04 24 24 00 00 00         	movl	$36, (%esp)
   20d7b: 89 44 24 04                  	movl	%eax, 4(%esp)
   20d7f: c7 44 24 08 00 00 00 00      	movl	$0, 8(%esp)
   20d87: e8 24 fc ff ff               	calll	0x209b0 <_Z6addIntiPFvvEj>
; /Users/jiang/Desktop/fat32-boot/int.cpp:160
   20d8c: 8d 05 2e 12 02 00            	leal	135726, %eax
   20d92: 31 c9                        	xorl	%ecx, %ecx
   20d94: c7 04 24 25 00 00 00         	movl	$37, (%esp)
   20d9b: 89 44 24 04                  	movl	%eax, 4(%esp)
   20d9f: c7 44 24 08 00 00 00 00      	movl	$0, 8(%esp)
   20da7: e8 04 fc ff ff               	calll	0x209b0 <_Z6addIntiPFvvEj>
; /Users/jiang/Desktop/fat32-boot/int.cpp:161
   20dac: 8d 05 56 12 02 00            	leal	135766, %eax
   20db2: 31 c9                        	xorl	%ecx, %ecx
   20db4: c7 04 24 26 00 00 00         	movl	$38, (%esp)
   20dbb: 89 44 24 04                  	movl	%eax, 4(%esp)
   20dbf: c7 44 24 08 00 00 00 00      	movl	$0, 8(%esp)
   20dc7: e8 e4 fb ff ff               	calll	0x209b0 <_Z6addIntiPFvvEj>
; /Users/jiang/Desktop/fat32-boot/int.cpp:162
   20dcc: 8d 05 7e 12 02 00            	leal	135806, %eax
   20dd2: 31 c9                        	xorl	%ecx, %ecx
   20dd4: c7 04 24 27 00 00 00         	movl	$39, (%esp)
   20ddb: 89 44 24 04                  	movl	%eax, 4(%esp)
   20ddf: c7 44 24 08 00 00 00 00      	movl	$0, 8(%esp)
   20de7: e8 c4 fb ff ff               	calll	0x209b0 <_Z6addIntiPFvvEj>
; /Users/jiang/Desktop/fat32-boot/int.cpp:163
   20dec: 8d 05 a6 12 02 00            	leal	135846, %eax
   20df2: 31 c9                        	xorl	%ecx, %ecx
   20df4: c7 04 24 28 00 00 00         	movl	$40, (%esp)
   20dfb: 89 44 24 04                  	movl	%eax, 4(%esp)
   20dff: c7 44 24 08 00 00 00 00      	movl	$0, 8(%esp)
   20e07: e8 a4 fb ff ff               	calll	0x209b0 <_Z6addIntiPFvvEj>
; /Users/jiang/Desktop/fat32-boot/int.cpp:164
   20e0c: 8d 05 ce 12 02 00            	leal	135886, %eax
   20e12: 31 c9                        	xorl	%ecx, %ecx
   20e14: c7 04 24 29 00 00 00         	movl	$41, (%esp)
   20e1b: 89 44 24 04                  	movl	%eax, 4(%esp)
   20e1f: c7 44 24 08 00 00 00 00      	movl	$0, 8(%esp)
   20e27: e8 84 fb ff ff               	calll	0x209b0 <_Z6addIntiPFvvEj>
; /Users/jiang/Desktop/fat32-boot/int.cpp:165
   20e2c: 8d 05 f6 12 02 00            	leal	135926, %eax
   20e32: 31 c9                        	xorl	%ecx, %ecx
   20e34: c7 04 24 2a 00 00 00         	movl	$42, (%esp)
   20e3b: 89 44 24 04                  	movl	%eax, 4(%esp)
   20e3f: c7 44 24 08 00 00 00 00      	movl	$0, 8(%esp)
   20e47: e8 64 fb ff ff               	calll	0x209b0 <_Z6addIntiPFvvEj>
; /Users/jiang/Desktop/fat32-boot/int.cpp:166
   20e4c: 8d 05 1e 13 02 00            	leal	135966, %eax
   20e52: 31 c9                        	xorl	%ecx, %ecx
   20e54: c7 04 24 2b 00 00 00         	movl	$43, (%esp)
   20e5b: 89 44 24 04                  	movl	%eax, 4(%esp)
   20e5f: c7 44 24 08 00 00 00 00      	movl	$0, 8(%esp)
   20e67: e8 44 fb ff ff               	calll	0x209b0 <_Z6addIntiPFvvEj>
; /Users/jiang/Desktop/fat32-boot/int.cpp:167
   20e6c: 8d 05 46 13 02 00            	leal	136006, %eax
   20e72: 31 c9                        	xorl	%ecx, %ecx
   20e74: c7 04 24 2c 00 00 00         	movl	$44, (%esp)
   20e7b: 89 44 24 04                  	movl	%eax, 4(%esp)
   20e7f: c7 44 24 08 00 00 00 00      	movl	$0, 8(%esp)
   20e87: e8 24 fb ff ff               	calll	0x209b0 <_Z6addIntiPFvvEj>
; /Users/jiang/Desktop/fat32-boot/int.cpp:168
   20e8c: 8d 05 6e 13 02 00            	leal	136046, %eax
   20e92: 31 c9                        	xorl	%ecx, %ecx
   20e94: c7 04 24 2d 00 00 00         	movl	$45, (%esp)
   20e9b: 89 44 24 04                  	movl	%eax, 4(%esp)
   20e9f: c7 44 24 08 00 00 00 00      	movl	$0, 8(%esp)
   20ea7: e8 04 fb ff ff               	calll	0x209b0 <_Z6addIntiPFvvEj>
; /Users/jiang/Desktop/fat32-boot/int.cpp:169
   20eac: 8d 05 96 13 02 00            	leal	136086, %eax
   20eb2: 31 c9                        	xorl	%ecx, %ecx
   20eb4: c7 04 24 2e 00 00 00         	movl	$46, (%esp)
   20ebb: 89 44 24 04                  	movl	%eax, 4(%esp)
   20ebf: c7 44 24 08 00 00 00 00      	movl	$0, 8(%esp)
   20ec7: e8 e4 fa ff ff               	calll	0x209b0 <_Z6addIntiPFvvEj>
; /Users/jiang/Desktop/fat32-boot/int.cpp:170
   20ecc: 8d 05 be 13 02 00            	leal	136126, %eax
   20ed2: 31 c9                        	xorl	%ecx, %ecx
   20ed4: c7 04 24 2f 00 00 00         	movl	$47, (%esp)
   20edb: 89 44 24 04                  	movl	%eax, 4(%esp)
   20edf: c7 44 24 08 00 00 00 00      	movl	$0, 8(%esp)
   20ee7: e8 c4 fa ff ff               	calll	0x209b0 <_Z6addIntiPFvvEj>
; /Users/jiang/Desktop/fat32-boot/int.cpp:171
   20eec: c7 45 fc 00 00 00 00         	movl	$0, -4(%ebp)
   20ef3: 83 7d fc 10                  	cmpl	$16, -4(%ebp)
   20ef7: 0f 8d 1c 00 00 00            	jge	0x20f19 <_Z21initialize_interruptsv+0x4b9>
; /Users/jiang/Desktop/fat32-boot/int.cpp:172
   20efd: 8b 45 fc                     	movl	-4(%ebp), %eax
   20f00: 0f b6 c0                     	movzbl	%al, %eax
   20f03: 89 04 24                     	movl	%eax, (%esp)
   20f06: e8 65 f9 ff ff               	calll	0x20870 <_Z14IRQ_clear_maskh>
; /Users/jiang/Desktop/fat32-boot/int.cpp:171
   20f0b: 8b 45 fc                     	movl	-4(%ebp), %eax
   20f0e: 83 c0 01                     	addl	$1, %eax
   20f11: 89 45 fc                     	movl	%eax, -4(%ebp)
   20f14: e9 da ff ff ff               	jmp	0x20ef3 <_Z21initialize_interruptsv+0x493>
; /Users/jiang/Desktop/fat32-boot/int.cpp:174
   20f19: fb                           	sti
; /Users/jiang/Desktop/fat32-boot/int.cpp:175
   20f1a: 83 c4 10                     	addl	$16, %esp
   20f1d: 5d                           	popl	%ebp
   20f1e: c3                           	retl
   20f1f: 90                           	nop

00020f20 <sendeoi>:
; sendeoi():
; /Users/jiang/Desktop/fat32-boot/ints.asm:3
   20f20: 83 f8 08                     	cmpl	$8, %eax
; /Users/jiang/Desktop/fat32-boot/ints.asm:4
   20f23: b0 20                        	movb	$32, %al
; /Users/jiang/Desktop/fat32-boot/ints.asm:5
   20f25: 7e 02                        	jle	0x20f29 <sendeoi.pic1>
; /Users/jiang/Desktop/fat32-boot/ints.asm:6
   20f27: e6 a0                        	outb	%al, $160

00020f29 <sendeoi.pic1>:
; sendeoi.pic1():
; /Users/jiang/Desktop/fat32-boot/ints.asm:8
   20f29: e6 20                        	outb	%al, $32
; /Users/jiang/Desktop/fat32-boot/ints.asm:9
   20f2b: c3                           	retl

00020f2c <int_0>:
; int_0():
; /Users/jiang/Desktop/fat32-boot/ints.asm:15
   20f2c: 60                           	pushal
; /Users/jiang/Desktop/fat32-boot/ints.asm:16
   20f2d: 1e                           	pushl	%ds
; /Users/jiang/Desktop/fat32-boot/ints.asm:17
   20f2e: 06                           	pushl	%es
; /Users/jiang/Desktop/fat32-boot/ints.asm:18
   20f2f: 0f a0                        	pushl	%fs
; /Users/jiang/Desktop/fat32-boot/ints.asm:19
   20f31: 0f a8                        	pushl	%gs
; /Users/jiang/Desktop/fat32-boot/ints.asm:20
   20f33: b8 10 00 00 00               	movl	$16, %eax
; /Users/jiang/Desktop/fat32-boot/ints.asm:21
   20f38: 8e d8                        	movl	%eax, %ds
; /Users/jiang/Desktop/fat32-boot/ints.asm:22
   20f3a: 8e c0                        	movl	%eax, %es
; /Users/jiang/Desktop/fat32-boot/ints.asm:23
   20f3c: fc                           	cld
; /Users/jiang/Desktop/fat32-boot/ints.asm:24
   20f3d: e8 ae 04 00 00               	calll	0x213f0 <int0>
; /Users/jiang/Desktop/fat32-boot/ints.asm:25
   20f42: 0f a9                        	popl	%gs
; /Users/jiang/Desktop/fat32-boot/ints.asm:26
   20f44: 0f a1                        	popl	%fs
; /Users/jiang/Desktop/fat32-boot/ints.asm:27
   20f46: 07                           	popl	%es
; /Users/jiang/Desktop/fat32-boot/ints.asm:28
   20f47: 1f                           	popl	%ds
; /Users/jiang/Desktop/fat32-boot/ints.asm:29
   20f48: 61                           	popal
; /Users/jiang/Desktop/fat32-boot/ints.asm:33
   20f49: cf                           	iretl

00020f4a <int_1>:
; int_1():
; /Users/jiang/Desktop/fat32-boot/ints.asm:15
   20f4a: 60                           	pushal
; /Users/jiang/Desktop/fat32-boot/ints.asm:16
   20f4b: 1e                           	pushl	%ds
; /Users/jiang/Desktop/fat32-boot/ints.asm:17
   20f4c: 06                           	pushl	%es
; /Users/jiang/Desktop/fat32-boot/ints.asm:18
   20f4d: 0f a0                        	pushl	%fs
; /Users/jiang/Desktop/fat32-boot/ints.asm:19
   20f4f: 0f a8                        	pushl	%gs
; /Users/jiang/Desktop/fat32-boot/ints.asm:20
   20f51: b8 10 00 00 00               	movl	$16, %eax
; /Users/jiang/Desktop/fat32-boot/ints.asm:21
   20f56: 8e d8                        	movl	%eax, %ds
; /Users/jiang/Desktop/fat32-boot/ints.asm:22
   20f58: 8e c0                        	movl	%eax, %es
; /Users/jiang/Desktop/fat32-boot/ints.asm:23
   20f5a: fc                           	cld
; /Users/jiang/Desktop/fat32-boot/ints.asm:24
   20f5b: e8 b0 04 00 00               	calll	0x21410 <int1>
; /Users/jiang/Desktop/fat32-boot/ints.asm:25
   20f60: 0f a9                        	popl	%gs
; /Users/jiang/Desktop/fat32-boot/ints.asm:26
   20f62: 0f a1                        	popl	%fs
; /Users/jiang/Desktop/fat32-boot/ints.asm:27
   20f64: 07                           	popl	%es
; /Users/jiang/Desktop/fat32-boot/ints.asm:28
   20f65: 1f                           	popl	%ds
; /Users/jiang/Desktop/fat32-boot/ints.asm:29
   20f66: 61                           	popal
; /Users/jiang/Desktop/fat32-boot/ints.asm:33
   20f67: cf                           	iretl

00020f68 <int_2>:
; int_2():
; /Users/jiang/Desktop/fat32-boot/ints.asm:15
   20f68: 60                           	pushal
; /Users/jiang/Desktop/fat32-boot/ints.asm:16
   20f69: 1e                           	pushl	%ds
; /Users/jiang/Desktop/fat32-boot/ints.asm:17
   20f6a: 06                           	pushl	%es
; /Users/jiang/Desktop/fat32-boot/ints.asm:18
   20f6b: 0f a0                        	pushl	%fs
; /Users/jiang/Desktop/fat32-boot/ints.asm:19
   20f6d: 0f a8                        	pushl	%gs
; /Users/jiang/Desktop/fat32-boot/ints.asm:20
   20f6f: b8 10 00 00 00               	movl	$16, %eax
; /Users/jiang/Desktop/fat32-boot/ints.asm:21
   20f74: 8e d8                        	movl	%eax, %ds
; /Users/jiang/Desktop/fat32-boot/ints.asm:22
   20f76: 8e c0                        	movl	%eax, %es
; /Users/jiang/Desktop/fat32-boot/ints.asm:23
   20f78: fc                           	cld
; /Users/jiang/Desktop/fat32-boot/ints.asm:24
   20f79: e8 b2 04 00 00               	calll	0x21430 <int2>
; /Users/jiang/Desktop/fat32-boot/ints.asm:25
   20f7e: 0f a9                        	popl	%gs
; /Users/jiang/Desktop/fat32-boot/ints.asm:26
   20f80: 0f a1                        	popl	%fs
; /Users/jiang/Desktop/fat32-boot/ints.asm:27
   20f82: 07                           	popl	%es
; /Users/jiang/Desktop/fat32-boot/ints.asm:28
   20f83: 1f                           	popl	%ds
; /Users/jiang/Desktop/fat32-boot/ints.asm:29
   20f84: 61                           	popal
; /Users/jiang/Desktop/fat32-boot/ints.asm:33
   20f85: cf                           	iretl

00020f86 <int_3>:
; int_3():
; /Users/jiang/Desktop/fat32-boot/ints.asm:15
   20f86: 60                           	pushal
; /Users/jiang/Desktop/fat32-boot/ints.asm:16
   20f87: 1e                           	pushl	%ds
; /Users/jiang/Desktop/fat32-boot/ints.asm:17
   20f88: 06                           	pushl	%es
; /Users/jiang/Desktop/fat32-boot/ints.asm:18
   20f89: 0f a0                        	pushl	%fs
; /Users/jiang/Desktop/fat32-boot/ints.asm:19
   20f8b: 0f a8                        	pushl	%gs
; /Users/jiang/Desktop/fat32-boot/ints.asm:20
   20f8d: b8 10 00 00 00               	movl	$16, %eax
; /Users/jiang/Desktop/fat32-boot/ints.asm:21
   20f92: 8e d8                        	movl	%eax, %ds
; /Users/jiang/Desktop/fat32-boot/ints.asm:22
   20f94: 8e c0                        	movl	%eax, %es
; /Users/jiang/Desktop/fat32-boot/ints.asm:23
   20f96: fc                           	cld
; /Users/jiang/Desktop/fat32-boot/ints.asm:24
   20f97: e8 b4 04 00 00               	calll	0x21450 <int3>
; /Users/jiang/Desktop/fat32-boot/ints.asm:25
   20f9c: 0f a9                        	popl	%gs
; /Users/jiang/Desktop/fat32-boot/ints.asm:26
   20f9e: 0f a1                        	popl	%fs
; /Users/jiang/Desktop/fat32-boot/ints.asm:27
   20fa0: 07                           	popl	%es
; /Users/jiang/Desktop/fat32-boot/ints.asm:28
   20fa1: 1f                           	popl	%ds
; /Users/jiang/Desktop/fat32-boot/ints.asm:29
   20fa2: 61                           	popal
; /Users/jiang/Desktop/fat32-boot/ints.asm:33
   20fa3: cf                           	iretl

00020fa4 <int_4>:
; int_4():
; /Users/jiang/Desktop/fat32-boot/ints.asm:15
   20fa4: 60                           	pushal
; /Users/jiang/Desktop/fat32-boot/ints.asm:16
   20fa5: 1e                           	pushl	%ds
; /Users/jiang/Desktop/fat32-boot/ints.asm:17
   20fa6: 06                           	pushl	%es
; /Users/jiang/Desktop/fat32-boot/ints.asm:18
   20fa7: 0f a0                        	pushl	%fs
; /Users/jiang/Desktop/fat32-boot/ints.asm:19
   20fa9: 0f a8                        	pushl	%gs
; /Users/jiang/Desktop/fat32-boot/ints.asm:20
   20fab: b8 10 00 00 00               	movl	$16, %eax
; /Users/jiang/Desktop/fat32-boot/ints.asm:21
   20fb0: 8e d8                        	movl	%eax, %ds
; /Users/jiang/Desktop/fat32-boot/ints.asm:22
   20fb2: 8e c0                        	movl	%eax, %es
; /Users/jiang/Desktop/fat32-boot/ints.asm:23
   20fb4: fc                           	cld
; /Users/jiang/Desktop/fat32-boot/ints.asm:24
   20fb5: e8 b6 04 00 00               	calll	0x21470 <int4>
; /Users/jiang/Desktop/fat32-boot/ints.asm:25
   20fba: 0f a9                        	popl	%gs
; /Users/jiang/Desktop/fat32-boot/ints.asm:26
   20fbc: 0f a1                        	popl	%fs
; /Users/jiang/Desktop/fat32-boot/ints.asm:27
   20fbe: 07                           	popl	%es
; /Users/jiang/Desktop/fat32-boot/ints.asm:28
   20fbf: 1f                           	popl	%ds
; /Users/jiang/Desktop/fat32-boot/ints.asm:29
   20fc0: 61                           	popal
; /Users/jiang/Desktop/fat32-boot/ints.asm:33
   20fc1: cf                           	iretl

00020fc2 <int_5>:
; int_5():
; /Users/jiang/Desktop/fat32-boot/ints.asm:15
   20fc2: 60                           	pushal
; /Users/jiang/Desktop/fat32-boot/ints.asm:16
   20fc3: 1e                           	pushl	%ds
; /Users/jiang/Desktop/fat32-boot/ints.asm:17
   20fc4: 06                           	pushl	%es
; /Users/jiang/Desktop/fat32-boot/ints.asm:18
   20fc5: 0f a0                        	pushl	%fs
; /Users/jiang/Desktop/fat32-boot/ints.asm:19
   20fc7: 0f a8                        	pushl	%gs
; /Users/jiang/Desktop/fat32-boot/ints.asm:20
   20fc9: b8 10 00 00 00               	movl	$16, %eax
; /Users/jiang/Desktop/fat32-boot/ints.asm:21
   20fce: 8e d8                        	movl	%eax, %ds
; /Users/jiang/Desktop/fat32-boot/ints.asm:22
   20fd0: 8e c0                        	movl	%eax, %es
; /Users/jiang/Desktop/fat32-boot/ints.asm:23
   20fd2: fc                           	cld
; /Users/jiang/Desktop/fat32-boot/ints.asm:24
   20fd3: e8 b8 04 00 00               	calll	0x21490 <int5>
; /Users/jiang/Desktop/fat32-boot/ints.asm:25
   20fd8: 0f a9                        	popl	%gs
; /Users/jiang/Desktop/fat32-boot/ints.asm:26
   20fda: 0f a1                        	popl	%fs
; /Users/jiang/Desktop/fat32-boot/ints.asm:27
   20fdc: 07                           	popl	%es
; /Users/jiang/Desktop/fat32-boot/ints.asm:28
   20fdd: 1f                           	popl	%ds
; /Users/jiang/Desktop/fat32-boot/ints.asm:29
   20fde: 61                           	popal
; /Users/jiang/Desktop/fat32-boot/ints.asm:33
   20fdf: cf                           	iretl

00020fe0 <int_6>:
; int_6():
; /Users/jiang/Desktop/fat32-boot/ints.asm:15
   20fe0: 60                           	pushal
; /Users/jiang/Desktop/fat32-boot/ints.asm:16
   20fe1: 1e                           	pushl	%ds
; /Users/jiang/Desktop/fat32-boot/ints.asm:17
   20fe2: 06                           	pushl	%es
; /Users/jiang/Desktop/fat32-boot/ints.asm:18
   20fe3: 0f a0                        	pushl	%fs
; /Users/jiang/Desktop/fat32-boot/ints.asm:19
   20fe5: 0f a8                        	pushl	%gs
; /Users/jiang/Desktop/fat32-boot/ints.asm:20
   20fe7: b8 10 00 00 00               	movl	$16, %eax
; /Users/jiang/Desktop/fat32-boot/ints.asm:21
   20fec: 8e d8                        	movl	%eax, %ds
; /Users/jiang/Desktop/fat32-boot/ints.asm:22
   20fee: 8e c0                        	movl	%eax, %es
; /Users/jiang/Desktop/fat32-boot/ints.asm:23
   20ff0: fc                           	cld
; /Users/jiang/Desktop/fat32-boot/ints.asm:24
   20ff1: e8 ba 04 00 00               	calll	0x214b0 <int6>
; /Users/jiang/Desktop/fat32-boot/ints.asm:25
   20ff6: 0f a9                        	popl	%gs
; /Users/jiang/Desktop/fat32-boot/ints.asm:26
   20ff8: 0f a1                        	popl	%fs
; /Users/jiang/Desktop/fat32-boot/ints.asm:27
   20ffa: 07                           	popl	%es
; /Users/jiang/Desktop/fat32-boot/ints.asm:28
   20ffb: 1f                           	popl	%ds
; /Users/jiang/Desktop/fat32-boot/ints.asm:29
   20ffc: 61                           	popal
; /Users/jiang/Desktop/fat32-boot/ints.asm:33
   20ffd: cf                           	iretl

00020ffe <int_7>:
; int_7():
; /Users/jiang/Desktop/fat32-boot/ints.asm:15
   20ffe: 60                           	pushal
; /Users/jiang/Desktop/fat32-boot/ints.asm:16
   20fff: 1e                           	pushl	%ds
; /Users/jiang/Desktop/fat32-boot/ints.asm:17
   21000: 06                           	pushl	%es
; /Users/jiang/Desktop/fat32-boot/ints.asm:18
   21001: 0f a0                        	pushl	%fs
; /Users/jiang/Desktop/fat32-boot/ints.asm:19
   21003: 0f a8                        	pushl	%gs
; /Users/jiang/Desktop/fat32-boot/ints.asm:20
   21005: b8 10 00 00 00               	movl	$16, %eax
; /Users/jiang/Desktop/fat32-boot/ints.asm:21
   2100a: 8e d8                        	movl	%eax, %ds
; /Users/jiang/Desktop/fat32-boot/ints.asm:22
   2100c: 8e c0                        	movl	%eax, %es
; /Users/jiang/Desktop/fat32-boot/ints.asm:23
   2100e: fc                           	cld
; /Users/jiang/Desktop/fat32-boot/ints.asm:24
   2100f: e8 bc 04 00 00               	calll	0x214d0 <int7>
; /Users/jiang/Desktop/fat32-boot/ints.asm:25
   21014: 0f a9                        	popl	%gs
; /Users/jiang/Desktop/fat32-boot/ints.asm:26
   21016: 0f a1                        	popl	%fs
; /Users/jiang/Desktop/fat32-boot/ints.asm:27
   21018: 07                           	popl	%es
; /Users/jiang/Desktop/fat32-boot/ints.asm:28
   21019: 1f                           	popl	%ds
; /Users/jiang/Desktop/fat32-boot/ints.asm:29
   2101a: 61                           	popal
; /Users/jiang/Desktop/fat32-boot/ints.asm:33
   2101b: cf                           	iretl

0002101c <int_8>:
; int_8():
; /Users/jiang/Desktop/fat32-boot/ints.asm:15
   2101c: 60                           	pushal
; /Users/jiang/Desktop/fat32-boot/ints.asm:16
   2101d: 1e                           	pushl	%ds
; /Users/jiang/Desktop/fat32-boot/ints.asm:17
   2101e: 06                           	pushl	%es
; /Users/jiang/Desktop/fat32-boot/ints.asm:18
   2101f: 0f a0                        	pushl	%fs
; /Users/jiang/Desktop/fat32-boot/ints.asm:19
   21021: 0f a8                        	pushl	%gs
; /Users/jiang/Desktop/fat32-boot/ints.asm:20
   21023: b8 10 00 00 00               	movl	$16, %eax
; /Users/jiang/Desktop/fat32-boot/ints.asm:21
   21028: 8e d8                        	movl	%eax, %ds
; /Users/jiang/Desktop/fat32-boot/ints.asm:22
   2102a: 8e c0                        	movl	%eax, %es
; /Users/jiang/Desktop/fat32-boot/ints.asm:23
   2102c: fc                           	cld
; /Users/jiang/Desktop/fat32-boot/ints.asm:24
   2102d: e8 be 04 00 00               	calll	0x214f0 <int8>
; /Users/jiang/Desktop/fat32-boot/ints.asm:25
   21032: 0f a9                        	popl	%gs
; /Users/jiang/Desktop/fat32-boot/ints.asm:26
   21034: 0f a1                        	popl	%fs
; /Users/jiang/Desktop/fat32-boot/ints.asm:27
   21036: 07                           	popl	%es
; /Users/jiang/Desktop/fat32-boot/ints.asm:28
   21037: 1f                           	popl	%ds
; /Users/jiang/Desktop/fat32-boot/ints.asm:29
   21038: 61                           	popal
; /Users/jiang/Desktop/fat32-boot/ints.asm:33
   21039: cf                           	iretl

0002103a <int_9>:
; int_9():
; /Users/jiang/Desktop/fat32-boot/ints.asm:15
   2103a: 60                           	pushal
; /Users/jiang/Desktop/fat32-boot/ints.asm:16
   2103b: 1e                           	pushl	%ds
; /Users/jiang/Desktop/fat32-boot/ints.asm:17
   2103c: 06                           	pushl	%es
; /Users/jiang/Desktop/fat32-boot/ints.asm:18
   2103d: 0f a0                        	pushl	%fs
; /Users/jiang/Desktop/fat32-boot/ints.asm:19
   2103f: 0f a8                        	pushl	%gs
; /Users/jiang/Desktop/fat32-boot/ints.asm:20
   21041: b8 10 00 00 00               	movl	$16, %eax
; /Users/jiang/Desktop/fat32-boot/ints.asm:21
   21046: 8e d8                        	movl	%eax, %ds
; /Users/jiang/Desktop/fat32-boot/ints.asm:22
   21048: 8e c0                        	movl	%eax, %es
; /Users/jiang/Desktop/fat32-boot/ints.asm:23
   2104a: fc                           	cld
; /Users/jiang/Desktop/fat32-boot/ints.asm:24
   2104b: e8 c0 04 00 00               	calll	0x21510 <int9>
; /Users/jiang/Desktop/fat32-boot/ints.asm:25
   21050: 0f a9                        	popl	%gs
; /Users/jiang/Desktop/fat32-boot/ints.asm:26
   21052: 0f a1                        	popl	%fs
; /Users/jiang/Desktop/fat32-boot/ints.asm:27
   21054: 07                           	popl	%es
; /Users/jiang/Desktop/fat32-boot/ints.asm:28
   21055: 1f                           	popl	%ds
; /Users/jiang/Desktop/fat32-boot/ints.asm:29
   21056: 61                           	popal
; /Users/jiang/Desktop/fat32-boot/ints.asm:33
   21057: cf                           	iretl

00021058 <int_10>:
; int_10():
; /Users/jiang/Desktop/fat32-boot/ints.asm:15
   21058: 60                           	pushal
; /Users/jiang/Desktop/fat32-boot/ints.asm:16
   21059: 1e                           	pushl	%ds
; /Users/jiang/Desktop/fat32-boot/ints.asm:17
   2105a: 06                           	pushl	%es
; /Users/jiang/Desktop/fat32-boot/ints.asm:18
   2105b: 0f a0                        	pushl	%fs
; /Users/jiang/Desktop/fat32-boot/ints.asm:19
   2105d: 0f a8                        	pushl	%gs
; /Users/jiang/Desktop/fat32-boot/ints.asm:20
   2105f: b8 10 00 00 00               	movl	$16, %eax
; /Users/jiang/Desktop/fat32-boot/ints.asm:21
   21064: 8e d8                        	movl	%eax, %ds
; /Users/jiang/Desktop/fat32-boot/ints.asm:22
   21066: 8e c0                        	movl	%eax, %es
; /Users/jiang/Desktop/fat32-boot/ints.asm:23
   21068: fc                           	cld
; /Users/jiang/Desktop/fat32-boot/ints.asm:24
   21069: e8 c2 04 00 00               	calll	0x21530 <int10>
; /Users/jiang/Desktop/fat32-boot/ints.asm:25
   2106e: 0f a9                        	popl	%gs
; /Users/jiang/Desktop/fat32-boot/ints.asm:26
   21070: 0f a1                        	popl	%fs
; /Users/jiang/Desktop/fat32-boot/ints.asm:27
   21072: 07                           	popl	%es
; /Users/jiang/Desktop/fat32-boot/ints.asm:28
   21073: 1f                           	popl	%ds
; /Users/jiang/Desktop/fat32-boot/ints.asm:29
   21074: 61                           	popal
; /Users/jiang/Desktop/fat32-boot/ints.asm:33
   21075: cf                           	iretl

00021076 <int_11>:
; int_11():
; /Users/jiang/Desktop/fat32-boot/ints.asm:15
   21076: 60                           	pushal
; /Users/jiang/Desktop/fat32-boot/ints.asm:16
   21077: 1e                           	pushl	%ds
; /Users/jiang/Desktop/fat32-boot/ints.asm:17
   21078: 06                           	pushl	%es
; /Users/jiang/Desktop/fat32-boot/ints.asm:18
   21079: 0f a0                        	pushl	%fs
; /Users/jiang/Desktop/fat32-boot/ints.asm:19
   2107b: 0f a8                        	pushl	%gs
; /Users/jiang/Desktop/fat32-boot/ints.asm:20
   2107d: b8 10 00 00 00               	movl	$16, %eax
; /Users/jiang/Desktop/fat32-boot/ints.asm:21
   21082: 8e d8                        	movl	%eax, %ds
; /Users/jiang/Desktop/fat32-boot/ints.asm:22
   21084: 8e c0                        	movl	%eax, %es
; /Users/jiang/Desktop/fat32-boot/ints.asm:23
   21086: fc                           	cld
; /Users/jiang/Desktop/fat32-boot/ints.asm:24
   21087: e8 c4 04 00 00               	calll	0x21550 <int11>
; /Users/jiang/Desktop/fat32-boot/ints.asm:25
   2108c: 0f a9                        	popl	%gs
; /Users/jiang/Desktop/fat32-boot/ints.asm:26
   2108e: 0f a1                        	popl	%fs
; /Users/jiang/Desktop/fat32-boot/ints.asm:27
   21090: 07                           	popl	%es
; /Users/jiang/Desktop/fat32-boot/ints.asm:28
   21091: 1f                           	popl	%ds
; /Users/jiang/Desktop/fat32-boot/ints.asm:29
   21092: 61                           	popal
; /Users/jiang/Desktop/fat32-boot/ints.asm:33
   21093: cf                           	iretl

00021094 <int_12>:
; int_12():
; /Users/jiang/Desktop/fat32-boot/ints.asm:15
   21094: 60                           	pushal
; /Users/jiang/Desktop/fat32-boot/ints.asm:16
   21095: 1e                           	pushl	%ds
; /Users/jiang/Desktop/fat32-boot/ints.asm:17
   21096: 06                           	pushl	%es
; /Users/jiang/Desktop/fat32-boot/ints.asm:18
   21097: 0f a0                        	pushl	%fs
; /Users/jiang/Desktop/fat32-boot/ints.asm:19
   21099: 0f a8                        	pushl	%gs
; /Users/jiang/Desktop/fat32-boot/ints.asm:20
   2109b: b8 10 00 00 00               	movl	$16, %eax
; /Users/jiang/Desktop/fat32-boot/ints.asm:21
   210a0: 8e d8                        	movl	%eax, %ds
; /Users/jiang/Desktop/fat32-boot/ints.asm:22
   210a2: 8e c0                        	movl	%eax, %es
; /Users/jiang/Desktop/fat32-boot/ints.asm:23
   210a4: fc                           	cld
; /Users/jiang/Desktop/fat32-boot/ints.asm:24
   210a5: e8 c6 04 00 00               	calll	0x21570 <int12>
; /Users/jiang/Desktop/fat32-boot/ints.asm:25
   210aa: 0f a9                        	popl	%gs
; /Users/jiang/Desktop/fat32-boot/ints.asm:26
   210ac: 0f a1                        	popl	%fs
; /Users/jiang/Desktop/fat32-boot/ints.asm:27
   210ae: 07                           	popl	%es
; /Users/jiang/Desktop/fat32-boot/ints.asm:28
   210af: 1f                           	popl	%ds
; /Users/jiang/Desktop/fat32-boot/ints.asm:29
   210b0: 61                           	popal
; /Users/jiang/Desktop/fat32-boot/ints.asm:33
   210b1: cf                           	iretl

000210b2 <int_13>:
; int_13():
; /Users/jiang/Desktop/fat32-boot/ints.asm:15
   210b2: 60                           	pushal
; /Users/jiang/Desktop/fat32-boot/ints.asm:16
   210b3: 1e                           	pushl	%ds
; /Users/jiang/Desktop/fat32-boot/ints.asm:17
   210b4: 06                           	pushl	%es
; /Users/jiang/Desktop/fat32-boot/ints.asm:18
   210b5: 0f a0                        	pushl	%fs
; /Users/jiang/Desktop/fat32-boot/ints.asm:19
   210b7: 0f a8                        	pushl	%gs
; /Users/jiang/Desktop/fat32-boot/ints.asm:20
   210b9: b8 10 00 00 00               	movl	$16, %eax
; /Users/jiang/Desktop/fat32-boot/ints.asm:21
   210be: 8e d8                        	movl	%eax, %ds
; /Users/jiang/Desktop/fat32-boot/ints.asm:22
   210c0: 8e c0                        	movl	%eax, %es
; /Users/jiang/Desktop/fat32-boot/ints.asm:23
   210c2: fc                           	cld
; /Users/jiang/Desktop/fat32-boot/ints.asm:24
   210c3: e8 c8 04 00 00               	calll	0x21590 <int13>
; /Users/jiang/Desktop/fat32-boot/ints.asm:25
   210c8: 0f a9                        	popl	%gs
; /Users/jiang/Desktop/fat32-boot/ints.asm:26
   210ca: 0f a1                        	popl	%fs
; /Users/jiang/Desktop/fat32-boot/ints.asm:27
   210cc: 07                           	popl	%es
; /Users/jiang/Desktop/fat32-boot/ints.asm:28
   210cd: 1f                           	popl	%ds
; /Users/jiang/Desktop/fat32-boot/ints.asm:29
   210ce: 61                           	popal
; /Users/jiang/Desktop/fat32-boot/ints.asm:33
   210cf: cf                           	iretl

000210d0 <int_14>:
; int_14():
; /Users/jiang/Desktop/fat32-boot/ints.asm:15
   210d0: 60                           	pushal
; /Users/jiang/Desktop/fat32-boot/ints.asm:16
   210d1: 1e                           	pushl	%ds
; /Users/jiang/Desktop/fat32-boot/ints.asm:17
   210d2: 06                           	pushl	%es
; /Users/jiang/Desktop/fat32-boot/ints.asm:18
   210d3: 0f a0                        	pushl	%fs
; /Users/jiang/Desktop/fat32-boot/ints.asm:19
   210d5: 0f a8                        	pushl	%gs
; /Users/jiang/Desktop/fat32-boot/ints.asm:20
   210d7: b8 10 00 00 00               	movl	$16, %eax
; /Users/jiang/Desktop/fat32-boot/ints.asm:21
   210dc: 8e d8                        	movl	%eax, %ds
; /Users/jiang/Desktop/fat32-boot/ints.asm:22
   210de: 8e c0                        	movl	%eax, %es
; /Users/jiang/Desktop/fat32-boot/ints.asm:23
   210e0: fc                           	cld
; /Users/jiang/Desktop/fat32-boot/ints.asm:24
   210e1: e8 ca 04 00 00               	calll	0x215b0 <int14>
; /Users/jiang/Desktop/fat32-boot/ints.asm:25
   210e6: 0f a9                        	popl	%gs
; /Users/jiang/Desktop/fat32-boot/ints.asm:26
   210e8: 0f a1                        	popl	%fs
; /Users/jiang/Desktop/fat32-boot/ints.asm:27
   210ea: 07                           	popl	%es
; /Users/jiang/Desktop/fat32-boot/ints.asm:28
   210eb: 1f                           	popl	%ds
; /Users/jiang/Desktop/fat32-boot/ints.asm:29
   210ec: 61                           	popal
; /Users/jiang/Desktop/fat32-boot/ints.asm:33
   210ed: cf                           	iretl

000210ee <int_16>:
; int_16():
; /Users/jiang/Desktop/fat32-boot/ints.asm:15
   210ee: 60                           	pushal
; /Users/jiang/Desktop/fat32-boot/ints.asm:16
   210ef: 1e                           	pushl	%ds
; /Users/jiang/Desktop/fat32-boot/ints.asm:17
   210f0: 06                           	pushl	%es
; /Users/jiang/Desktop/fat32-boot/ints.asm:18
   210f1: 0f a0                        	pushl	%fs
; /Users/jiang/Desktop/fat32-boot/ints.asm:19
   210f3: 0f a8                        	pushl	%gs
; /Users/jiang/Desktop/fat32-boot/ints.asm:20
   210f5: b8 10 00 00 00               	movl	$16, %eax
; /Users/jiang/Desktop/fat32-boot/ints.asm:21
   210fa: 8e d8                        	movl	%eax, %ds
; /Users/jiang/Desktop/fat32-boot/ints.asm:22
   210fc: 8e c0                        	movl	%eax, %es
; /Users/jiang/Desktop/fat32-boot/ints.asm:23
   210fe: fc                           	cld
; /Users/jiang/Desktop/fat32-boot/ints.asm:24
   210ff: e8 cc 04 00 00               	calll	0x215d0 <int16>
; /Users/jiang/Desktop/fat32-boot/ints.asm:25
   21104: 0f a9                        	popl	%gs
; /Users/jiang/Desktop/fat32-boot/ints.asm:26
   21106: 0f a1                        	popl	%fs
; /Users/jiang/Desktop/fat32-boot/ints.asm:27
   21108: 07                           	popl	%es
; /Users/jiang/Desktop/fat32-boot/ints.asm:28
   21109: 1f                           	popl	%ds
; /Users/jiang/Desktop/fat32-boot/ints.asm:29
   2110a: 61                           	popal
; /Users/jiang/Desktop/fat32-boot/ints.asm:33
   2110b: cf                           	iretl

0002110c <int_17>:
; int_17():
; /Users/jiang/Desktop/fat32-boot/ints.asm:15
   2110c: 60                           	pushal
; /Users/jiang/Desktop/fat32-boot/ints.asm:16
   2110d: 1e                           	pushl	%ds
; /Users/jiang/Desktop/fat32-boot/ints.asm:17
   2110e: 06                           	pushl	%es
; /Users/jiang/Desktop/fat32-boot/ints.asm:18
   2110f: 0f a0                        	pushl	%fs
; /Users/jiang/Desktop/fat32-boot/ints.asm:19
   21111: 0f a8                        	pushl	%gs
; /Users/jiang/Desktop/fat32-boot/ints.asm:20
   21113: b8 10 00 00 00               	movl	$16, %eax
; /Users/jiang/Desktop/fat32-boot/ints.asm:21
   21118: 8e d8                        	movl	%eax, %ds
; /Users/jiang/Desktop/fat32-boot/ints.asm:22
   2111a: 8e c0                        	movl	%eax, %es
; /Users/jiang/Desktop/fat32-boot/ints.asm:23
   2111c: fc                           	cld
; /Users/jiang/Desktop/fat32-boot/ints.asm:24
   2111d: e8 ce 04 00 00               	calll	0x215f0 <int17>
; /Users/jiang/Desktop/fat32-boot/ints.asm:25
   21122: 0f a9                        	popl	%gs
; /Users/jiang/Desktop/fat32-boot/ints.asm:26
   21124: 0f a1                        	popl	%fs
; /Users/jiang/Desktop/fat32-boot/ints.asm:27
   21126: 07                           	popl	%es
; /Users/jiang/Desktop/fat32-boot/ints.asm:28
   21127: 1f                           	popl	%ds
; /Users/jiang/Desktop/fat32-boot/ints.asm:29
   21128: 61                           	popal
; /Users/jiang/Desktop/fat32-boot/ints.asm:33
   21129: cf                           	iretl

0002112a <int_18>:
; int_18():
; /Users/jiang/Desktop/fat32-boot/ints.asm:15
   2112a: 60                           	pushal
; /Users/jiang/Desktop/fat32-boot/ints.asm:16
   2112b: 1e                           	pushl	%ds
; /Users/jiang/Desktop/fat32-boot/ints.asm:17
   2112c: 06                           	pushl	%es
; /Users/jiang/Desktop/fat32-boot/ints.asm:18
   2112d: 0f a0                        	pushl	%fs
; /Users/jiang/Desktop/fat32-boot/ints.asm:19
   2112f: 0f a8                        	pushl	%gs
; /Users/jiang/Desktop/fat32-boot/ints.asm:20
   21131: b8 10 00 00 00               	movl	$16, %eax
; /Users/jiang/Desktop/fat32-boot/ints.asm:21
   21136: 8e d8                        	movl	%eax, %ds
; /Users/jiang/Desktop/fat32-boot/ints.asm:22
   21138: 8e c0                        	movl	%eax, %es
; /Users/jiang/Desktop/fat32-boot/ints.asm:23
   2113a: fc                           	cld
; /Users/jiang/Desktop/fat32-boot/ints.asm:24
   2113b: e8 d0 04 00 00               	calll	0x21610 <int18>
; /Users/jiang/Desktop/fat32-boot/ints.asm:25
   21140: 0f a9                        	popl	%gs
; /Users/jiang/Desktop/fat32-boot/ints.asm:26
   21142: 0f a1                        	popl	%fs
; /Users/jiang/Desktop/fat32-boot/ints.asm:27
   21144: 07                           	popl	%es
; /Users/jiang/Desktop/fat32-boot/ints.asm:28
   21145: 1f                           	popl	%ds
; /Users/jiang/Desktop/fat32-boot/ints.asm:29
   21146: 61                           	popal
; /Users/jiang/Desktop/fat32-boot/ints.asm:33
   21147: cf                           	iretl

00021148 <int_19>:
; int_19():
; /Users/jiang/Desktop/fat32-boot/ints.asm:15
   21148: 60                           	pushal
; /Users/jiang/Desktop/fat32-boot/ints.asm:16
   21149: 1e                           	pushl	%ds
; /Users/jiang/Desktop/fat32-boot/ints.asm:17
   2114a: 06                           	pushl	%es
; /Users/jiang/Desktop/fat32-boot/ints.asm:18
   2114b: 0f a0                        	pushl	%fs
; /Users/jiang/Desktop/fat32-boot/ints.asm:19
   2114d: 0f a8                        	pushl	%gs
; /Users/jiang/Desktop/fat32-boot/ints.asm:20
   2114f: b8 10 00 00 00               	movl	$16, %eax
; /Users/jiang/Desktop/fat32-boot/ints.asm:21
   21154: 8e d8                        	movl	%eax, %ds
; /Users/jiang/Desktop/fat32-boot/ints.asm:22
   21156: 8e c0                        	movl	%eax, %es
; /Users/jiang/Desktop/fat32-boot/ints.asm:23
   21158: fc                           	cld
; /Users/jiang/Desktop/fat32-boot/ints.asm:24
   21159: e8 d2 04 00 00               	calll	0x21630 <int19>
; /Users/jiang/Desktop/fat32-boot/ints.asm:25
   2115e: 0f a9                        	popl	%gs
; /Users/jiang/Desktop/fat32-boot/ints.asm:26
   21160: 0f a1                        	popl	%fs
; /Users/jiang/Desktop/fat32-boot/ints.asm:27
   21162: 07                           	popl	%es
; /Users/jiang/Desktop/fat32-boot/ints.asm:28
   21163: 1f                           	popl	%ds
; /Users/jiang/Desktop/fat32-boot/ints.asm:29
   21164: 61                           	popal
; /Users/jiang/Desktop/fat32-boot/ints.asm:33
   21165: cf                           	iretl

00021166 <irq_0>:
; irq_0():
; /Users/jiang/Desktop/fat32-boot/ints.asm:15
   21166: 60                           	pushal
; /Users/jiang/Desktop/fat32-boot/ints.asm:16
   21167: 1e                           	pushl	%ds
; /Users/jiang/Desktop/fat32-boot/ints.asm:17
   21168: 06                           	pushl	%es
; /Users/jiang/Desktop/fat32-boot/ints.asm:18
   21169: 0f a0                        	pushl	%fs
; /Users/jiang/Desktop/fat32-boot/ints.asm:19
   2116b: 0f a8                        	pushl	%gs
; /Users/jiang/Desktop/fat32-boot/ints.asm:20
   2116d: b8 10 00 00 00               	movl	$16, %eax
; /Users/jiang/Desktop/fat32-boot/ints.asm:21
   21172: 8e d8                        	movl	%eax, %ds
; /Users/jiang/Desktop/fat32-boot/ints.asm:22
   21174: 8e c0                        	movl	%eax, %es
; /Users/jiang/Desktop/fat32-boot/ints.asm:23
   21176: fc                           	cld
; /Users/jiang/Desktop/fat32-boot/ints.asm:24
   21177: e8 d4 04 00 00               	calll	0x21650 <irq0>
; /Users/jiang/Desktop/fat32-boot/ints.asm:25
   2117c: 0f a9                        	popl	%gs
; /Users/jiang/Desktop/fat32-boot/ints.asm:26
   2117e: 0f a1                        	popl	%fs
; /Users/jiang/Desktop/fat32-boot/ints.asm:27
   21180: 07                           	popl	%es
; /Users/jiang/Desktop/fat32-boot/ints.asm:28
   21181: 1f                           	popl	%ds
; /Users/jiang/Desktop/fat32-boot/ints.asm:29
   21182: 61                           	popal
; /Users/jiang/Desktop/fat32-boot/ints.asm:37
   21183: b8 00 00 00 00               	movl	$0, %eax
; /Users/jiang/Desktop/fat32-boot/ints.asm:38
   21188: e8 93 fd ff ff               	calll	0x20f20 <sendeoi>
; /Users/jiang/Desktop/fat32-boot/ints.asm:39
   2118d: cf                           	iretl

0002118e <irq_1>:
; irq_1():
; /Users/jiang/Desktop/fat32-boot/ints.asm:15
   2118e: 60                           	pushal
; /Users/jiang/Desktop/fat32-boot/ints.asm:16
   2118f: 1e                           	pushl	%ds
; /Users/jiang/Desktop/fat32-boot/ints.asm:17
   21190: 06                           	pushl	%es
; /Users/jiang/Desktop/fat32-boot/ints.asm:18
   21191: 0f a0                        	pushl	%fs
; /Users/jiang/Desktop/fat32-boot/ints.asm:19
   21193: 0f a8                        	pushl	%gs
; /Users/jiang/Desktop/fat32-boot/ints.asm:20
   21195: b8 10 00 00 00               	movl	$16, %eax
; /Users/jiang/Desktop/fat32-boot/ints.asm:21
   2119a: 8e d8                        	movl	%eax, %ds
; /Users/jiang/Desktop/fat32-boot/ints.asm:22
   2119c: 8e c0                        	movl	%eax, %es
; /Users/jiang/Desktop/fat32-boot/ints.asm:23
   2119e: fc                           	cld
; /Users/jiang/Desktop/fat32-boot/ints.asm:24
   2119f: e8 bc 04 00 00               	calll	0x21660 <irq1>
; /Users/jiang/Desktop/fat32-boot/ints.asm:25
   211a4: 0f a9                        	popl	%gs
; /Users/jiang/Desktop/fat32-boot/ints.asm:26
   211a6: 0f a1                        	popl	%fs
; /Users/jiang/Desktop/fat32-boot/ints.asm:27
   211a8: 07                           	popl	%es
; /Users/jiang/Desktop/fat32-boot/ints.asm:28
   211a9: 1f                           	popl	%ds
; /Users/jiang/Desktop/fat32-boot/ints.asm:29
   211aa: 61                           	popal
; /Users/jiang/Desktop/fat32-boot/ints.asm:37
   211ab: b8 01 00 00 00               	movl	$1, %eax
; /Users/jiang/Desktop/fat32-boot/ints.asm:38
   211b0: e8 6b fd ff ff               	calll	0x20f20 <sendeoi>
; /Users/jiang/Desktop/fat32-boot/ints.asm:39
   211b5: cf                           	iretl

000211b6 <irq_2>:
; irq_2():
; /Users/jiang/Desktop/fat32-boot/ints.asm:15
   211b6: 60                           	pushal
; /Users/jiang/Desktop/fat32-boot/ints.asm:16
   211b7: 1e                           	pushl	%ds
; /Users/jiang/Desktop/fat32-boot/ints.asm:17
   211b8: 06                           	pushl	%es
; /Users/jiang/Desktop/fat32-boot/ints.asm:18
   211b9: 0f a0                        	pushl	%fs
; /Users/jiang/Desktop/fat32-boot/ints.asm:19
   211bb: 0f a8                        	pushl	%gs
; /Users/jiang/Desktop/fat32-boot/ints.asm:20
   211bd: b8 10 00 00 00               	movl	$16, %eax
; /Users/jiang/Desktop/fat32-boot/ints.asm:21
   211c2: 8e d8                        	movl	%eax, %ds
; /Users/jiang/Desktop/fat32-boot/ints.asm:22
   211c4: 8e c0                        	movl	%eax, %es
; /Users/jiang/Desktop/fat32-boot/ints.asm:23
   211c6: fc                           	cld
; /Users/jiang/Desktop/fat32-boot/ints.asm:24
   211c7: e8 94 05 00 00               	calll	0x21760 <irq2>
; /Users/jiang/Desktop/fat32-boot/ints.asm:25
   211cc: 0f a9                        	popl	%gs
; /Users/jiang/Desktop/fat32-boot/ints.asm:26
   211ce: 0f a1                        	popl	%fs
; /Users/jiang/Desktop/fat32-boot/ints.asm:27
   211d0: 07                           	popl	%es
; /Users/jiang/Desktop/fat32-boot/ints.asm:28
   211d1: 1f                           	popl	%ds
; /Users/jiang/Desktop/fat32-boot/ints.asm:29
   211d2: 61                           	popal
; /Users/jiang/Desktop/fat32-boot/ints.asm:37
   211d3: b8 02 00 00 00               	movl	$2, %eax
; /Users/jiang/Desktop/fat32-boot/ints.asm:38
   211d8: e8 43 fd ff ff               	calll	0x20f20 <sendeoi>
; /Users/jiang/Desktop/fat32-boot/ints.asm:39
   211dd: cf                           	iretl

000211de <irq_3>:
; irq_3():
; /Users/jiang/Desktop/fat32-boot/ints.asm:15
   211de: 60                           	pushal
; /Users/jiang/Desktop/fat32-boot/ints.asm:16
   211df: 1e                           	pushl	%ds
; /Users/jiang/Desktop/fat32-boot/ints.asm:17
   211e0: 06                           	pushl	%es
; /Users/jiang/Desktop/fat32-boot/ints.asm:18
   211e1: 0f a0                        	pushl	%fs
; /Users/jiang/Desktop/fat32-boot/ints.asm:19
   211e3: 0f a8                        	pushl	%gs
; /Users/jiang/Desktop/fat32-boot/ints.asm:20
   211e5: b8 10 00 00 00               	movl	$16, %eax
; /Users/jiang/Desktop/fat32-boot/ints.asm:21
   211ea: 8e d8                        	movl	%eax, %ds
; /Users/jiang/Desktop/fat32-boot/ints.asm:22
   211ec: 8e c0                        	movl	%eax, %es
; /Users/jiang/Desktop/fat32-boot/ints.asm:23
   211ee: fc                           	cld
; /Users/jiang/Desktop/fat32-boot/ints.asm:24
   211ef: e8 8c 05 00 00               	calll	0x21780 <irq3>
; /Users/jiang/Desktop/fat32-boot/ints.asm:25
   211f4: 0f a9                        	popl	%gs
; /Users/jiang/Desktop/fat32-boot/ints.asm:26
   211f6: 0f a1                        	popl	%fs
; /Users/jiang/Desktop/fat32-boot/ints.asm:27
   211f8: 07                           	popl	%es
; /Users/jiang/Desktop/fat32-boot/ints.asm:28
   211f9: 1f                           	popl	%ds
; /Users/jiang/Desktop/fat32-boot/ints.asm:29
   211fa: 61                           	popal
; /Users/jiang/Desktop/fat32-boot/ints.asm:37
   211fb: b8 03 00 00 00               	movl	$3, %eax
; /Users/jiang/Desktop/fat32-boot/ints.asm:38
   21200: e8 1b fd ff ff               	calll	0x20f20 <sendeoi>
; /Users/jiang/Desktop/fat32-boot/ints.asm:39
   21205: cf                           	iretl

00021206 <irq_4>:
; irq_4():
; /Users/jiang/Desktop/fat32-boot/ints.asm:15
   21206: 60                           	pushal
; /Users/jiang/Desktop/fat32-boot/ints.asm:16
   21207: 1e                           	pushl	%ds
; /Users/jiang/Desktop/fat32-boot/ints.asm:17
   21208: 06                           	pushl	%es
; /Users/jiang/Desktop/fat32-boot/ints.asm:18
   21209: 0f a0                        	pushl	%fs
; /Users/jiang/Desktop/fat32-boot/ints.asm:19
   2120b: 0f a8                        	pushl	%gs
; /Users/jiang/Desktop/fat32-boot/ints.asm:20
   2120d: b8 10 00 00 00               	movl	$16, %eax
; /Users/jiang/Desktop/fat32-boot/ints.asm:21
   21212: 8e d8                        	movl	%eax, %ds
; /Users/jiang/Desktop/fat32-boot/ints.asm:22
   21214: 8e c0                        	movl	%eax, %es
; /Users/jiang/Desktop/fat32-boot/ints.asm:23
   21216: fc                           	cld
; /Users/jiang/Desktop/fat32-boot/ints.asm:24
   21217: e8 84 05 00 00               	calll	0x217a0 <irq4>
; /Users/jiang/Desktop/fat32-boot/ints.asm:25
   2121c: 0f a9                        	popl	%gs
; /Users/jiang/Desktop/fat32-boot/ints.asm:26
   2121e: 0f a1                        	popl	%fs
; /Users/jiang/Desktop/fat32-boot/ints.asm:27
   21220: 07                           	popl	%es
; /Users/jiang/Desktop/fat32-boot/ints.asm:28
   21221: 1f                           	popl	%ds
; /Users/jiang/Desktop/fat32-boot/ints.asm:29
   21222: 61                           	popal
; /Users/jiang/Desktop/fat32-boot/ints.asm:37
   21223: b8 04 00 00 00               	movl	$4, %eax
; /Users/jiang/Desktop/fat32-boot/ints.asm:38
   21228: e8 f3 fc ff ff               	calll	0x20f20 <sendeoi>
; /Users/jiang/Desktop/fat32-boot/ints.asm:39
   2122d: cf                           	iretl

0002122e <irq_5>:
; irq_5():
; /Users/jiang/Desktop/fat32-boot/ints.asm:15
   2122e: 60                           	pushal
; /Users/jiang/Desktop/fat32-boot/ints.asm:16
   2122f: 1e                           	pushl	%ds
; /Users/jiang/Desktop/fat32-boot/ints.asm:17
   21230: 06                           	pushl	%es
; /Users/jiang/Desktop/fat32-boot/ints.asm:18
   21231: 0f a0                        	pushl	%fs
; /Users/jiang/Desktop/fat32-boot/ints.asm:19
   21233: 0f a8                        	pushl	%gs
; /Users/jiang/Desktop/fat32-boot/ints.asm:20
   21235: b8 10 00 00 00               	movl	$16, %eax
; /Users/jiang/Desktop/fat32-boot/ints.asm:21
   2123a: 8e d8                        	movl	%eax, %ds
; /Users/jiang/Desktop/fat32-boot/ints.asm:22
   2123c: 8e c0                        	movl	%eax, %es
; /Users/jiang/Desktop/fat32-boot/ints.asm:23
   2123e: fc                           	cld
; /Users/jiang/Desktop/fat32-boot/ints.asm:24
   2123f: e8 7c 05 00 00               	calll	0x217c0 <irq5>
; /Users/jiang/Desktop/fat32-boot/ints.asm:25
   21244: 0f a9                        	popl	%gs
; /Users/jiang/Desktop/fat32-boot/ints.asm:26
   21246: 0f a1                        	popl	%fs
; /Users/jiang/Desktop/fat32-boot/ints.asm:27
   21248: 07                           	popl	%es
; /Users/jiang/Desktop/fat32-boot/ints.asm:28
   21249: 1f                           	popl	%ds
; /Users/jiang/Desktop/fat32-boot/ints.asm:29
   2124a: 61                           	popal
; /Users/jiang/Desktop/fat32-boot/ints.asm:37
   2124b: b8 05 00 00 00               	movl	$5, %eax
; /Users/jiang/Desktop/fat32-boot/ints.asm:38
   21250: e8 cb fc ff ff               	calll	0x20f20 <sendeoi>
; /Users/jiang/Desktop/fat32-boot/ints.asm:39
   21255: cf                           	iretl

00021256 <irq_6>:
; irq_6():
; /Users/jiang/Desktop/fat32-boot/ints.asm:15
   21256: 60                           	pushal
; /Users/jiang/Desktop/fat32-boot/ints.asm:16
   21257: 1e                           	pushl	%ds
; /Users/jiang/Desktop/fat32-boot/ints.asm:17
   21258: 06                           	pushl	%es
; /Users/jiang/Desktop/fat32-boot/ints.asm:18
   21259: 0f a0                        	pushl	%fs
; /Users/jiang/Desktop/fat32-boot/ints.asm:19
   2125b: 0f a8                        	pushl	%gs
; /Users/jiang/Desktop/fat32-boot/ints.asm:20
   2125d: b8 10 00 00 00               	movl	$16, %eax
; /Users/jiang/Desktop/fat32-boot/ints.asm:21
   21262: 8e d8                        	movl	%eax, %ds
; /Users/jiang/Desktop/fat32-boot/ints.asm:22
   21264: 8e c0                        	movl	%eax, %es
; /Users/jiang/Desktop/fat32-boot/ints.asm:23
   21266: fc                           	cld
; /Users/jiang/Desktop/fat32-boot/ints.asm:24
   21267: e8 74 05 00 00               	calll	0x217e0 <irq6>
; /Users/jiang/Desktop/fat32-boot/ints.asm:25
   2126c: 0f a9                        	popl	%gs
; /Users/jiang/Desktop/fat32-boot/ints.asm:26
   2126e: 0f a1                        	popl	%fs
; /Users/jiang/Desktop/fat32-boot/ints.asm:27
   21270: 07                           	popl	%es
; /Users/jiang/Desktop/fat32-boot/ints.asm:28
   21271: 1f                           	popl	%ds
; /Users/jiang/Desktop/fat32-boot/ints.asm:29
   21272: 61                           	popal
; /Users/jiang/Desktop/fat32-boot/ints.asm:37
   21273: b8 06 00 00 00               	movl	$6, %eax
; /Users/jiang/Desktop/fat32-boot/ints.asm:38
   21278: e8 a3 fc ff ff               	calll	0x20f20 <sendeoi>
; /Users/jiang/Desktop/fat32-boot/ints.asm:39
   2127d: cf                           	iretl

0002127e <irq_7>:
; irq_7():
; /Users/jiang/Desktop/fat32-boot/ints.asm:15
   2127e: 60                           	pushal
; /Users/jiang/Desktop/fat32-boot/ints.asm:16
   2127f: 1e                           	pushl	%ds
; /Users/jiang/Desktop/fat32-boot/ints.asm:17
   21280: 06                           	pushl	%es
; /Users/jiang/Desktop/fat32-boot/ints.asm:18
   21281: 0f a0                        	pushl	%fs
; /Users/jiang/Desktop/fat32-boot/ints.asm:19
   21283: 0f a8                        	pushl	%gs
; /Users/jiang/Desktop/fat32-boot/ints.asm:20
   21285: b8 10 00 00 00               	movl	$16, %eax
; /Users/jiang/Desktop/fat32-boot/ints.asm:21
   2128a: 8e d8                        	movl	%eax, %ds
; /Users/jiang/Desktop/fat32-boot/ints.asm:22
   2128c: 8e c0                        	movl	%eax, %es
; /Users/jiang/Desktop/fat32-boot/ints.asm:23
   2128e: fc                           	cld
; /Users/jiang/Desktop/fat32-boot/ints.asm:24
   2128f: e8 6c 05 00 00               	calll	0x21800 <irq7>
; /Users/jiang/Desktop/fat32-boot/ints.asm:25
   21294: 0f a9                        	popl	%gs
; /Users/jiang/Desktop/fat32-boot/ints.asm:26
   21296: 0f a1                        	popl	%fs
; /Users/jiang/Desktop/fat32-boot/ints.asm:27
   21298: 07                           	popl	%es
; /Users/jiang/Desktop/fat32-boot/ints.asm:28
   21299: 1f                           	popl	%ds
; /Users/jiang/Desktop/fat32-boot/ints.asm:29
   2129a: 61                           	popal
; /Users/jiang/Desktop/fat32-boot/ints.asm:37
   2129b: b8 07 00 00 00               	movl	$7, %eax
; /Users/jiang/Desktop/fat32-boot/ints.asm:38
   212a0: e8 7b fc ff ff               	calll	0x20f20 <sendeoi>
; /Users/jiang/Desktop/fat32-boot/ints.asm:39
   212a5: cf                           	iretl

000212a6 <irq_8>:
; irq_8():
; /Users/jiang/Desktop/fat32-boot/ints.asm:15
   212a6: 60                           	pushal
; /Users/jiang/Desktop/fat32-boot/ints.asm:16
   212a7: 1e                           	pushl	%ds
; /Users/jiang/Desktop/fat32-boot/ints.asm:17
   212a8: 06                           	pushl	%es
; /Users/jiang/Desktop/fat32-boot/ints.asm:18
   212a9: 0f a0                        	pushl	%fs
; /Users/jiang/Desktop/fat32-boot/ints.asm:19
   212ab: 0f a8                        	pushl	%gs
; /Users/jiang/Desktop/fat32-boot/ints.asm:20
   212ad: b8 10 00 00 00               	movl	$16, %eax
; /Users/jiang/Desktop/fat32-boot/ints.asm:21
   212b2: 8e d8                        	movl	%eax, %ds
; /Users/jiang/Desktop/fat32-boot/ints.asm:22
   212b4: 8e c0                        	movl	%eax, %es
; /Users/jiang/Desktop/fat32-boot/ints.asm:23
   212b6: fc                           	cld
; /Users/jiang/Desktop/fat32-boot/ints.asm:24
   212b7: e8 64 05 00 00               	calll	0x21820 <irq8>
; /Users/jiang/Desktop/fat32-boot/ints.asm:25
   212bc: 0f a9                        	popl	%gs
; /Users/jiang/Desktop/fat32-boot/ints.asm:26
   212be: 0f a1                        	popl	%fs
; /Users/jiang/Desktop/fat32-boot/ints.asm:27
   212c0: 07                           	popl	%es
; /Users/jiang/Desktop/fat32-boot/ints.asm:28
   212c1: 1f                           	popl	%ds
; /Users/jiang/Desktop/fat32-boot/ints.asm:29
   212c2: 61                           	popal
; /Users/jiang/Desktop/fat32-boot/ints.asm:37
   212c3: b8 08 00 00 00               	movl	$8, %eax
; /Users/jiang/Desktop/fat32-boot/ints.asm:38
   212c8: e8 53 fc ff ff               	calll	0x20f20 <sendeoi>
; /Users/jiang/Desktop/fat32-boot/ints.asm:39
   212cd: cf                           	iretl

000212ce <irq_9>:
; irq_9():
; /Users/jiang/Desktop/fat32-boot/ints.asm:15
   212ce: 60                           	pushal
; /Users/jiang/Desktop/fat32-boot/ints.asm:16
   212cf: 1e                           	pushl	%ds
; /Users/jiang/Desktop/fat32-boot/ints.asm:17
   212d0: 06                           	pushl	%es
; /Users/jiang/Desktop/fat32-boot/ints.asm:18
   212d1: 0f a0                        	pushl	%fs
; /Users/jiang/Desktop/fat32-boot/ints.asm:19
   212d3: 0f a8                        	pushl	%gs
; /Users/jiang/Desktop/fat32-boot/ints.asm:20
   212d5: b8 10 00 00 00               	movl	$16, %eax
; /Users/jiang/Desktop/fat32-boot/ints.asm:21
   212da: 8e d8                        	movl	%eax, %ds
; /Users/jiang/Desktop/fat32-boot/ints.asm:22
   212dc: 8e c0                        	movl	%eax, %es
; /Users/jiang/Desktop/fat32-boot/ints.asm:23
   212de: fc                           	cld
; /Users/jiang/Desktop/fat32-boot/ints.asm:24
   212df: e8 5c 05 00 00               	calll	0x21840 <irq9>
; /Users/jiang/Desktop/fat32-boot/ints.asm:25
   212e4: 0f a9                        	popl	%gs
; /Users/jiang/Desktop/fat32-boot/ints.asm:26
   212e6: 0f a1                        	popl	%fs
; /Users/jiang/Desktop/fat32-boot/ints.asm:27
   212e8: 07                           	popl	%es
; /Users/jiang/Desktop/fat32-boot/ints.asm:28
   212e9: 1f                           	popl	%ds
; /Users/jiang/Desktop/fat32-boot/ints.asm:29
   212ea: 61                           	popal
; /Users/jiang/Desktop/fat32-boot/ints.asm:37
   212eb: b8 09 00 00 00               	movl	$9, %eax
; /Users/jiang/Desktop/fat32-boot/ints.asm:38
   212f0: e8 2b fc ff ff               	calll	0x20f20 <sendeoi>
; /Users/jiang/Desktop/fat32-boot/ints.asm:39
   212f5: cf                           	iretl

000212f6 <irq_10>:
; irq_10():
; /Users/jiang/Desktop/fat32-boot/ints.asm:15
   212f6: 60                           	pushal
; /Users/jiang/Desktop/fat32-boot/ints.asm:16
   212f7: 1e                           	pushl	%ds
; /Users/jiang/Desktop/fat32-boot/ints.asm:17
   212f8: 06                           	pushl	%es
; /Users/jiang/Desktop/fat32-boot/ints.asm:18
   212f9: 0f a0                        	pushl	%fs
; /Users/jiang/Desktop/fat32-boot/ints.asm:19
   212fb: 0f a8                        	pushl	%gs
; /Users/jiang/Desktop/fat32-boot/ints.asm:20
   212fd: b8 10 00 00 00               	movl	$16, %eax
; /Users/jiang/Desktop/fat32-boot/ints.asm:21
   21302: 8e d8                        	movl	%eax, %ds
; /Users/jiang/Desktop/fat32-boot/ints.asm:22
   21304: 8e c0                        	movl	%eax, %es
; /Users/jiang/Desktop/fat32-boot/ints.asm:23
   21306: fc                           	cld
; /Users/jiang/Desktop/fat32-boot/ints.asm:24
   21307: e8 54 05 00 00               	calll	0x21860 <irq10>
; /Users/jiang/Desktop/fat32-boot/ints.asm:25
   2130c: 0f a9                        	popl	%gs
; /Users/jiang/Desktop/fat32-boot/ints.asm:26
   2130e: 0f a1                        	popl	%fs
; /Users/jiang/Desktop/fat32-boot/ints.asm:27
   21310: 07                           	popl	%es
; /Users/jiang/Desktop/fat32-boot/ints.asm:28
   21311: 1f                           	popl	%ds
; /Users/jiang/Desktop/fat32-boot/ints.asm:29
   21312: 61                           	popal
; /Users/jiang/Desktop/fat32-boot/ints.asm:37
   21313: b8 0a 00 00 00               	movl	$10, %eax
; /Users/jiang/Desktop/fat32-boot/ints.asm:38
   21318: e8 03 fc ff ff               	calll	0x20f20 <sendeoi>
; /Users/jiang/Desktop/fat32-boot/ints.asm:39
   2131d: cf                           	iretl

0002131e <irq_11>:
; irq_11():
; /Users/jiang/Desktop/fat32-boot/ints.asm:15
   2131e: 60                           	pushal
; /Users/jiang/Desktop/fat32-boot/ints.asm:16
   2131f: 1e                           	pushl	%ds
; /Users/jiang/Desktop/fat32-boot/ints.asm:17
   21320: 06                           	pushl	%es
; /Users/jiang/Desktop/fat32-boot/ints.asm:18
   21321: 0f a0                        	pushl	%fs
; /Users/jiang/Desktop/fat32-boot/ints.asm:19
   21323: 0f a8                        	pushl	%gs
; /Users/jiang/Desktop/fat32-boot/ints.asm:20
   21325: b8 10 00 00 00               	movl	$16, %eax
; /Users/jiang/Desktop/fat32-boot/ints.asm:21
   2132a: 8e d8                        	movl	%eax, %ds
; /Users/jiang/Desktop/fat32-boot/ints.asm:22
   2132c: 8e c0                        	movl	%eax, %es
; /Users/jiang/Desktop/fat32-boot/ints.asm:23
   2132e: fc                           	cld
; /Users/jiang/Desktop/fat32-boot/ints.asm:24
   2132f: e8 4c 05 00 00               	calll	0x21880 <irq11>
; /Users/jiang/Desktop/fat32-boot/ints.asm:25
   21334: 0f a9                        	popl	%gs
; /Users/jiang/Desktop/fat32-boot/ints.asm:26
   21336: 0f a1                        	popl	%fs
; /Users/jiang/Desktop/fat32-boot/ints.asm:27
   21338: 07                           	popl	%es
; /Users/jiang/Desktop/fat32-boot/ints.asm:28
   21339: 1f                           	popl	%ds
; /Users/jiang/Desktop/fat32-boot/ints.asm:29
   2133a: 61                           	popal
; /Users/jiang/Desktop/fat32-boot/ints.asm:37
   2133b: b8 0b 00 00 00               	movl	$11, %eax
; /Users/jiang/Desktop/fat32-boot/ints.asm:38
   21340: e8 db fb ff ff               	calll	0x20f20 <sendeoi>
; /Users/jiang/Desktop/fat32-boot/ints.asm:39
   21345: cf                           	iretl

00021346 <irq_12>:
; irq_12():
; /Users/jiang/Desktop/fat32-boot/ints.asm:15
   21346: 60                           	pushal
; /Users/jiang/Desktop/fat32-boot/ints.asm:16
   21347: 1e                           	pushl	%ds
; /Users/jiang/Desktop/fat32-boot/ints.asm:17
   21348: 06                           	pushl	%es
; /Users/jiang/Desktop/fat32-boot/ints.asm:18
   21349: 0f a0                        	pushl	%fs
; /Users/jiang/Desktop/fat32-boot/ints.asm:19
   2134b: 0f a8                        	pushl	%gs
; /Users/jiang/Desktop/fat32-boot/ints.asm:20
   2134d: b8 10 00 00 00               	movl	$16, %eax
; /Users/jiang/Desktop/fat32-boot/ints.asm:21
   21352: 8e d8                        	movl	%eax, %ds
; /Users/jiang/Desktop/fat32-boot/ints.asm:22
   21354: 8e c0                        	movl	%eax, %es
; /Users/jiang/Desktop/fat32-boot/ints.asm:23
   21356: fc                           	cld
; /Users/jiang/Desktop/fat32-boot/ints.asm:24
   21357: e8 44 05 00 00               	calll	0x218a0 <irq12>
; /Users/jiang/Desktop/fat32-boot/ints.asm:25
   2135c: 0f a9                        	popl	%gs
; /Users/jiang/Desktop/fat32-boot/ints.asm:26
   2135e: 0f a1                        	popl	%fs
; /Users/jiang/Desktop/fat32-boot/ints.asm:27
   21360: 07                           	popl	%es
; /Users/jiang/Desktop/fat32-boot/ints.asm:28
   21361: 1f                           	popl	%ds
; /Users/jiang/Desktop/fat32-boot/ints.asm:29
   21362: 61                           	popal
; /Users/jiang/Desktop/fat32-boot/ints.asm:37
   21363: b8 0c 00 00 00               	movl	$12, %eax
; /Users/jiang/Desktop/fat32-boot/ints.asm:38
   21368: e8 b3 fb ff ff               	calll	0x20f20 <sendeoi>
; /Users/jiang/Desktop/fat32-boot/ints.asm:39
   2136d: cf                           	iretl

0002136e <irq_13>:
; irq_13():
; /Users/jiang/Desktop/fat32-boot/ints.asm:15
   2136e: 60                           	pushal
; /Users/jiang/Desktop/fat32-boot/ints.asm:16
   2136f: 1e                           	pushl	%ds
; /Users/jiang/Desktop/fat32-boot/ints.asm:17
   21370: 06                           	pushl	%es
; /Users/jiang/Desktop/fat32-boot/ints.asm:18
   21371: 0f a0                        	pushl	%fs
; /Users/jiang/Desktop/fat32-boot/ints.asm:19
   21373: 0f a8                        	pushl	%gs
; /Users/jiang/Desktop/fat32-boot/ints.asm:20
   21375: b8 10 00 00 00               	movl	$16, %eax
; /Users/jiang/Desktop/fat32-boot/ints.asm:21
   2137a: 8e d8                        	movl	%eax, %ds
; /Users/jiang/Desktop/fat32-boot/ints.asm:22
   2137c: 8e c0                        	movl	%eax, %es
; /Users/jiang/Desktop/fat32-boot/ints.asm:23
   2137e: fc                           	cld
; /Users/jiang/Desktop/fat32-boot/ints.asm:24
   2137f: e8 ec 06 00 00               	calll	0x21a70 <irq13>
; /Users/jiang/Desktop/fat32-boot/ints.asm:25
   21384: 0f a9                        	popl	%gs
; /Users/jiang/Desktop/fat32-boot/ints.asm:26
   21386: 0f a1                        	popl	%fs
; /Users/jiang/Desktop/fat32-boot/ints.asm:27
   21388: 07                           	popl	%es
; /Users/jiang/Desktop/fat32-boot/ints.asm:28
   21389: 1f                           	popl	%ds
; /Users/jiang/Desktop/fat32-boot/ints.asm:29
   2138a: 61                           	popal
; /Users/jiang/Desktop/fat32-boot/ints.asm:37
   2138b: b8 0d 00 00 00               	movl	$13, %eax
; /Users/jiang/Desktop/fat32-boot/ints.asm:38
   21390: e8 8b fb ff ff               	calll	0x20f20 <sendeoi>
; /Users/jiang/Desktop/fat32-boot/ints.asm:39
   21395: cf                           	iretl

00021396 <irq_14>:
; irq_14():
; /Users/jiang/Desktop/fat32-boot/ints.asm:15
   21396: 60                           	pushal
; /Users/jiang/Desktop/fat32-boot/ints.asm:16
   21397: 1e                           	pushl	%ds
; /Users/jiang/Desktop/fat32-boot/ints.asm:17
   21398: 06                           	pushl	%es
; /Users/jiang/Desktop/fat32-boot/ints.asm:18
   21399: 0f a0                        	pushl	%fs
; /Users/jiang/Desktop/fat32-boot/ints.asm:19
   2139b: 0f a8                        	pushl	%gs
; /Users/jiang/Desktop/fat32-boot/ints.asm:20
   2139d: b8 10 00 00 00               	movl	$16, %eax
; /Users/jiang/Desktop/fat32-boot/ints.asm:21
   213a2: 8e d8                        	movl	%eax, %ds
; /Users/jiang/Desktop/fat32-boot/ints.asm:22
   213a4: 8e c0                        	movl	%eax, %es
; /Users/jiang/Desktop/fat32-boot/ints.asm:23
   213a6: fc                           	cld
; /Users/jiang/Desktop/fat32-boot/ints.asm:24
   213a7: e8 e4 06 00 00               	calll	0x21a90 <irq14>
; /Users/jiang/Desktop/fat32-boot/ints.asm:25
   213ac: 0f a9                        	popl	%gs
; /Users/jiang/Desktop/fat32-boot/ints.asm:26
   213ae: 0f a1                        	popl	%fs
; /Users/jiang/Desktop/fat32-boot/ints.asm:27
   213b0: 07                           	popl	%es
; /Users/jiang/Desktop/fat32-boot/ints.asm:28
   213b1: 1f                           	popl	%ds
; /Users/jiang/Desktop/fat32-boot/ints.asm:29
   213b2: 61                           	popal
; /Users/jiang/Desktop/fat32-boot/ints.asm:37
   213b3: b8 0e 00 00 00               	movl	$14, %eax
; /Users/jiang/Desktop/fat32-boot/ints.asm:38
   213b8: e8 63 fb ff ff               	calll	0x20f20 <sendeoi>
; /Users/jiang/Desktop/fat32-boot/ints.asm:39
   213bd: cf                           	iretl

000213be <irq_15>:
; irq_15():
; /Users/jiang/Desktop/fat32-boot/ints.asm:15
   213be: 60                           	pushal
; /Users/jiang/Desktop/fat32-boot/ints.asm:16
   213bf: 1e                           	pushl	%ds
; /Users/jiang/Desktop/fat32-boot/ints.asm:17
   213c0: 06                           	pushl	%es
; /Users/jiang/Desktop/fat32-boot/ints.asm:18
   213c1: 0f a0                        	pushl	%fs
; /Users/jiang/Desktop/fat32-boot/ints.asm:19
   213c3: 0f a8                        	pushl	%gs
; /Users/jiang/Desktop/fat32-boot/ints.asm:20
   213c5: b8 10 00 00 00               	movl	$16, %eax
; /Users/jiang/Desktop/fat32-boot/ints.asm:21
   213ca: 8e d8                        	movl	%eax, %ds
; /Users/jiang/Desktop/fat32-boot/ints.asm:22
   213cc: 8e c0                        	movl	%eax, %es
; /Users/jiang/Desktop/fat32-boot/ints.asm:23
   213ce: fc                           	cld
; /Users/jiang/Desktop/fat32-boot/ints.asm:24
   213cf: e8 dc 06 00 00               	calll	0x21ab0 <irq15>
; /Users/jiang/Desktop/fat32-boot/ints.asm:25
   213d4: 0f a9                        	popl	%gs
; /Users/jiang/Desktop/fat32-boot/ints.asm:26
   213d6: 0f a1                        	popl	%fs
; /Users/jiang/Desktop/fat32-boot/ints.asm:27
   213d8: 07                           	popl	%es
; /Users/jiang/Desktop/fat32-boot/ints.asm:28
   213d9: 1f                           	popl	%ds
; /Users/jiang/Desktop/fat32-boot/ints.asm:29
   213da: 61                           	popal
; /Users/jiang/Desktop/fat32-boot/ints.asm:37
   213db: b8 0f 00 00 00               	movl	$15, %eax
; /Users/jiang/Desktop/fat32-boot/ints.asm:38
   213e0: e8 3b fb ff ff               	calll	0x20f20 <sendeoi>
; /Users/jiang/Desktop/fat32-boot/ints.asm:39
   213e5: cf                           	iretl
   213e6: 66 90                        	nop
   213e8: 66 90                        	nop
   213ea: 66 90                        	nop
   213ec: 66 90                        	nop
   213ee: 66 90                        	nop

000213f0 <int0>:
; int0():
; /Users/jiang/Desktop/fat32-boot/ints.cpp:43
   213f0: 55                           	pushl	%ebp
   213f1: 89 e5                        	movl	%esp, %ebp
   213f3: 50                           	pushl	%eax
; /Users/jiang/Desktop/fat32-boot/ints.cpp:44
   213f4: 66 87 db                     	xchgw	%bx, %bx
; /Users/jiang/Desktop/fat32-boot/ints.cpp:45
   213f7: 8d 05 aa 25 02 00            	leal	140714, %eax
   213fd: 89 04 24                     	movl	%eax, (%esp)
   21400: e8 bb 0b 00 00               	calll	0x21fc0 <_Z5printPc>
; /Users/jiang/Desktop/fat32-boot/ints.cpp:46
   21405: 83 c4 04                     	addl	$4, %esp
   21408: 5d                           	popl	%ebp
   21409: c3                           	retl
   2140a: 66 0f 1f 44 00 00            	nopw	(%eax,%eax)

00021410 <int1>:
; int1():
; /Users/jiang/Desktop/fat32-boot/ints.cpp:47
   21410: 55                           	pushl	%ebp
   21411: 89 e5                        	movl	%esp, %ebp
   21413: 50                           	pushl	%eax
; /Users/jiang/Desktop/fat32-boot/ints.cpp:48
   21414: 66 87 db                     	xchgw	%bx, %bx
; /Users/jiang/Desktop/fat32-boot/ints.cpp:49
   21417: 8d 05 bc 25 02 00            	leal	140732, %eax
   2141d: 89 04 24                     	movl	%eax, (%esp)
   21420: e8 9b 0b 00 00               	calll	0x21fc0 <_Z5printPc>
; /Users/jiang/Desktop/fat32-boot/ints.cpp:50
   21425: 83 c4 04                     	addl	$4, %esp
   21428: 5d                           	popl	%ebp
   21429: c3                           	retl
   2142a: 66 0f 1f 44 00 00            	nopw	(%eax,%eax)

00021430 <int2>:
; int2():
; /Users/jiang/Desktop/fat32-boot/ints.cpp:51
   21430: 55                           	pushl	%ebp
   21431: 89 e5                        	movl	%esp, %ebp
   21433: 50                           	pushl	%eax
; /Users/jiang/Desktop/fat32-boot/ints.cpp:52
   21434: 66 87 db                     	xchgw	%bx, %bx
; /Users/jiang/Desktop/fat32-boot/ints.cpp:53
   21437: 8d 05 c8 25 02 00            	leal	140744, %eax
   2143d: 89 04 24                     	movl	%eax, (%esp)
   21440: e8 7b 0b 00 00               	calll	0x21fc0 <_Z5printPc>
; /Users/jiang/Desktop/fat32-boot/ints.cpp:54
   21445: 83 c4 04                     	addl	$4, %esp
   21448: 5d                           	popl	%ebp
   21449: c3                           	retl
   2144a: 66 0f 1f 44 00 00            	nopw	(%eax,%eax)

00021450 <int3>:
; int3():
; /Users/jiang/Desktop/fat32-boot/ints.cpp:55
   21450: 55                           	pushl	%ebp
   21451: 89 e5                        	movl	%esp, %ebp
   21453: 50                           	pushl	%eax
; /Users/jiang/Desktop/fat32-boot/ints.cpp:56
   21454: 66 87 db                     	xchgw	%bx, %bx
; /Users/jiang/Desktop/fat32-boot/ints.cpp:57
   21457: 8d 05 d2 25 02 00            	leal	140754, %eax
   2145d: 89 04 24                     	movl	%eax, (%esp)
   21460: e8 5b 0b 00 00               	calll	0x21fc0 <_Z5printPc>
; /Users/jiang/Desktop/fat32-boot/ints.cpp:58
   21465: 83 c4 04                     	addl	$4, %esp
   21468: 5d                           	popl	%ebp
   21469: c3                           	retl
   2146a: 66 0f 1f 44 00 00            	nopw	(%eax,%eax)

00021470 <int4>:
; int4():
; /Users/jiang/Desktop/fat32-boot/ints.cpp:59
   21470: 55                           	pushl	%ebp
   21471: 89 e5                        	movl	%esp, %ebp
   21473: 50                           	pushl	%eax
; /Users/jiang/Desktop/fat32-boot/ints.cpp:60
   21474: 66 87 db                     	xchgw	%bx, %bx
; /Users/jiang/Desktop/fat32-boot/ints.cpp:61
   21477: 8d 05 e3 25 02 00            	leal	140771, %eax
   2147d: 89 04 24                     	movl	%eax, (%esp)
   21480: e8 3b 0b 00 00               	calll	0x21fc0 <_Z5printPc>
; /Users/jiang/Desktop/fat32-boot/ints.cpp:62
   21485: 83 c4 04                     	addl	$4, %esp
   21488: 5d                           	popl	%ebp
   21489: c3                           	retl
   2148a: 66 0f 1f 44 00 00            	nopw	(%eax,%eax)

00021490 <int5>:
; int5():
; /Users/jiang/Desktop/fat32-boot/ints.cpp:63
   21490: 55                           	pushl	%ebp
   21491: 89 e5                        	movl	%esp, %ebp
   21493: 50                           	pushl	%eax
; /Users/jiang/Desktop/fat32-boot/ints.cpp:64
   21494: 66 87 db                     	xchgw	%bx, %bx
; /Users/jiang/Desktop/fat32-boot/ints.cpp:65
   21497: 8d 05 f2 25 02 00            	leal	140786, %eax
   2149d: 89 04 24                     	movl	%eax, (%esp)
   214a0: e8 1b 0b 00 00               	calll	0x21fc0 <_Z5printPc>
; /Users/jiang/Desktop/fat32-boot/ints.cpp:66
   214a5: 83 c4 04                     	addl	$4, %esp
   214a8: 5d                           	popl	%ebp
   214a9: c3                           	retl
   214aa: 66 0f 1f 44 00 00            	nopw	(%eax,%eax)

000214b0 <int6>:
; int6():
; /Users/jiang/Desktop/fat32-boot/ints.cpp:67
   214b0: 55                           	pushl	%ebp
   214b1: 89 e5                        	movl	%esp, %ebp
   214b3: 50                           	pushl	%eax
; /Users/jiang/Desktop/fat32-boot/ints.cpp:68
   214b4: 66 87 db                     	xchgw	%bx, %bx
; /Users/jiang/Desktop/fat32-boot/ints.cpp:69
   214b7: 8d 05 fe 25 02 00            	leal	140798, %eax
   214bd: 89 04 24                     	movl	%eax, (%esp)
   214c0: e8 fb 0a 00 00               	calll	0x21fc0 <_Z5printPc>
; /Users/jiang/Desktop/fat32-boot/ints.cpp:70
   214c5: 83 c4 04                     	addl	$4, %esp
   214c8: 5d                           	popl	%ebp
   214c9: c3                           	retl
   214ca: 66 0f 1f 44 00 00            	nopw	(%eax,%eax)

000214d0 <int7>:
; int7():
; /Users/jiang/Desktop/fat32-boot/ints.cpp:71
   214d0: 55                           	pushl	%ebp
   214d1: 89 e5                        	movl	%esp, %ebp
   214d3: 50                           	pushl	%eax
; /Users/jiang/Desktop/fat32-boot/ints.cpp:72
   214d4: 66 87 db                     	xchgw	%bx, %bx
; /Users/jiang/Desktop/fat32-boot/ints.cpp:73
   214d7: 8d 05 13 26 02 00            	leal	140819, %eax
   214dd: 89 04 24                     	movl	%eax, (%esp)
   214e0: e8 db 0a 00 00               	calll	0x21fc0 <_Z5printPc>
; /Users/jiang/Desktop/fat32-boot/ints.cpp:74
   214e5: 83 c4 04                     	addl	$4, %esp
   214e8: 5d                           	popl	%ebp
   214e9: c3                           	retl
   214ea: 66 0f 1f 44 00 00            	nopw	(%eax,%eax)

000214f0 <int8>:
; int8():
; /Users/jiang/Desktop/fat32-boot/ints.cpp:75
   214f0: 55                           	pushl	%ebp
   214f1: 89 e5                        	movl	%esp, %ebp
   214f3: 50                           	pushl	%eax
; /Users/jiang/Desktop/fat32-boot/ints.cpp:76
   214f4: 66 87 db                     	xchgw	%bx, %bx
; /Users/jiang/Desktop/fat32-boot/ints.cpp:77
   214f7: 8d 05 2e 26 02 00            	leal	140846, %eax
   214fd: 89 04 24                     	movl	%eax, (%esp)
   21500: e8 bb 0a 00 00               	calll	0x21fc0 <_Z5printPc>
; /Users/jiang/Desktop/fat32-boot/ints.cpp:78
   21505: 83 c4 04                     	addl	$4, %esp
   21508: 5d                           	popl	%ebp
   21509: c3                           	retl
   2150a: 66 0f 1f 44 00 00            	nopw	(%eax,%eax)

00021510 <int9>:
; int9():
; /Users/jiang/Desktop/fat32-boot/ints.cpp:79
   21510: 55                           	pushl	%ebp
   21511: 89 e5                        	movl	%esp, %ebp
   21513: 50                           	pushl	%eax
; /Users/jiang/Desktop/fat32-boot/ints.cpp:80
   21514: 66 87 db                     	xchgw	%bx, %bx
; /Users/jiang/Desktop/fat32-boot/ints.cpp:81
   21517: 8d 05 41 26 02 00            	leal	140865, %eax
   2151d: 89 04 24                     	movl	%eax, (%esp)
   21520: e8 9b 0a 00 00               	calll	0x21fc0 <_Z5printPc>
; /Users/jiang/Desktop/fat32-boot/ints.cpp:82
   21525: 83 c4 04                     	addl	$4, %esp
   21528: 5d                           	popl	%ebp
   21529: c3                           	retl
   2152a: 66 0f 1f 44 00 00            	nopw	(%eax,%eax)

00021530 <int10>:
; int10():
; /Users/jiang/Desktop/fat32-boot/ints.cpp:83
   21530: 55                           	pushl	%ebp
   21531: 89 e5                        	movl	%esp, %ebp
   21533: 50                           	pushl	%eax
; /Users/jiang/Desktop/fat32-boot/ints.cpp:84
   21534: 66 87 db                     	xchgw	%bx, %bx
; /Users/jiang/Desktop/fat32-boot/ints.cpp:85
   21537: 8d 05 5f 26 02 00            	leal	140895, %eax
   2153d: 89 04 24                     	movl	%eax, (%esp)
   21540: e8 7b 0a 00 00               	calll	0x21fc0 <_Z5printPc>
; /Users/jiang/Desktop/fat32-boot/ints.cpp:86
   21545: 83 c4 04                     	addl	$4, %esp
   21548: 5d                           	popl	%ebp
   21549: c3                           	retl
   2154a: 66 0f 1f 44 00 00            	nopw	(%eax,%eax)

00021550 <int11>:
; int11():
; /Users/jiang/Desktop/fat32-boot/ints.cpp:87
   21550: 55                           	pushl	%ebp
   21551: 89 e5                        	movl	%esp, %ebp
   21553: 50                           	pushl	%eax
; /Users/jiang/Desktop/fat32-boot/ints.cpp:88
   21554: 66 87 db                     	xchgw	%bx, %bx
; /Users/jiang/Desktop/fat32-boot/ints.cpp:89
   21557: 8d 05 72 26 02 00            	leal	140914, %eax
   2155d: 89 04 24                     	movl	%eax, (%esp)
   21560: e8 5b 0a 00 00               	calll	0x21fc0 <_Z5printPc>
; /Users/jiang/Desktop/fat32-boot/ints.cpp:90
   21565: 83 c4 04                     	addl	$4, %esp
   21568: 5d                           	popl	%ebp
   21569: c3                           	retl
   2156a: 66 0f 1f 44 00 00            	nopw	(%eax,%eax)

00021570 <int12>:
; int12():
; /Users/jiang/Desktop/fat32-boot/ints.cpp:91
   21570: 55                           	pushl	%ebp
   21571: 89 e5                        	movl	%esp, %ebp
   21573: 50                           	pushl	%eax
; /Users/jiang/Desktop/fat32-boot/ints.cpp:92
   21574: 66 87 db                     	xchgw	%bx, %bx
; /Users/jiang/Desktop/fat32-boot/ints.cpp:93
   21577: 8d 05 8d 26 02 00            	leal	140941, %eax
   2157d: 89 04 24                     	movl	%eax, (%esp)
   21580: e8 3b 0a 00 00               	calll	0x21fc0 <_Z5printPc>
; /Users/jiang/Desktop/fat32-boot/ints.cpp:94
   21585: 83 c4 04                     	addl	$4, %esp
   21588: 5d                           	popl	%ebp
   21589: c3                           	retl
   2158a: 66 0f 1f 44 00 00            	nopw	(%eax,%eax)

00021590 <int13>:
; int13():
; /Users/jiang/Desktop/fat32-boot/ints.cpp:95
   21590: 55                           	pushl	%ebp
   21591: 89 e5                        	movl	%esp, %ebp
   21593: 50                           	pushl	%eax
; /Users/jiang/Desktop/fat32-boot/ints.cpp:96
   21594: 66 87 db                     	xchgw	%bx, %bx
; /Users/jiang/Desktop/fat32-boot/ints.cpp:97
   21597: 8d 05 a0 26 02 00            	leal	140960, %eax
   2159d: 89 04 24                     	movl	%eax, (%esp)
   215a0: e8 1b 0a 00 00               	calll	0x21fc0 <_Z5printPc>
; /Users/jiang/Desktop/fat32-boot/ints.cpp:98
   215a5: 83 c4 04                     	addl	$4, %esp
   215a8: 5d                           	popl	%ebp
   215a9: c3                           	retl
   215aa: 66 0f 1f 44 00 00            	nopw	(%eax,%eax)

000215b0 <int14>:
; int14():
; /Users/jiang/Desktop/fat32-boot/ints.cpp:99
   215b0: 55                           	pushl	%ebp
   215b1: 89 e5                        	movl	%esp, %ebp
   215b3: 50                           	pushl	%eax
; /Users/jiang/Desktop/fat32-boot/ints.cpp:100
   215b4: 66 87 db                     	xchgw	%bx, %bx
; /Users/jiang/Desktop/fat32-boot/ints.cpp:101
   215b7: 8d 05 c0 26 02 00            	leal	140992, %eax
   215bd: 89 04 24                     	movl	%eax, (%esp)
   215c0: e8 fb 09 00 00               	calll	0x21fc0 <_Z5printPc>
; /Users/jiang/Desktop/fat32-boot/ints.cpp:102
   215c5: 83 c4 04                     	addl	$4, %esp
   215c8: 5d                           	popl	%ebp
   215c9: c3                           	retl
   215ca: 66 0f 1f 44 00 00            	nopw	(%eax,%eax)

000215d0 <int16>:
; int16():
; /Users/jiang/Desktop/fat32-boot/ints.cpp:103
   215d0: 55                           	pushl	%ebp
   215d1: 89 e5                        	movl	%esp, %ebp
   215d3: 50                           	pushl	%eax
; /Users/jiang/Desktop/fat32-boot/ints.cpp:104
   215d4: 66 87 db                     	xchgw	%bx, %bx
; /Users/jiang/Desktop/fat32-boot/ints.cpp:105
   215d7: 8d 05 d2 26 02 00            	leal	141010, %eax
   215dd: 89 04 24                     	movl	%eax, (%esp)
   215e0: e8 db 09 00 00               	calll	0x21fc0 <_Z5printPc>
; /Users/jiang/Desktop/fat32-boot/ints.cpp:106
   215e5: 83 c4 04                     	addl	$4, %esp
   215e8: 5d                           	popl	%ebp
   215e9: c3                           	retl
   215ea: 66 0f 1f 44 00 00            	nopw	(%eax,%eax)

000215f0 <int17>:
; int17():
; /Users/jiang/Desktop/fat32-boot/ints.cpp:107
   215f0: 55                           	pushl	%ebp
   215f1: 89 e5                        	movl	%esp, %ebp
   215f3: 50                           	pushl	%eax
; /Users/jiang/Desktop/fat32-boot/ints.cpp:108
   215f4: 66 87 db                     	xchgw	%bx, %bx
; /Users/jiang/Desktop/fat32-boot/ints.cpp:109
   215f7: 8d 05 e3 26 02 00            	leal	141027, %eax
   215fd: 89 04 24                     	movl	%eax, (%esp)
   21600: e8 bb 09 00 00               	calll	0x21fc0 <_Z5printPc>
; /Users/jiang/Desktop/fat32-boot/ints.cpp:110
   21605: 83 c4 04                     	addl	$4, %esp
   21608: 5d                           	popl	%ebp
   21609: c3                           	retl
   2160a: 66 0f 1f 44 00 00            	nopw	(%eax,%eax)

00021610 <int18>:
; int18():
; /Users/jiang/Desktop/fat32-boot/ints.cpp:111
   21610: 55                           	pushl	%ebp
   21611: 89 e5                        	movl	%esp, %ebp
   21613: 50                           	pushl	%eax
; /Users/jiang/Desktop/fat32-boot/ints.cpp:112
   21614: 66 87 db                     	xchgw	%bx, %bx
; /Users/jiang/Desktop/fat32-boot/ints.cpp:113
   21617: 8d 05 fa 26 02 00            	leal	141050, %eax
   2161d: 89 04 24                     	movl	%eax, (%esp)
   21620: e8 9b 09 00 00               	calll	0x21fc0 <_Z5printPc>
; /Users/jiang/Desktop/fat32-boot/ints.cpp:114
   21625: 83 c4 04                     	addl	$4, %esp
   21628: 5d                           	popl	%ebp
   21629: c3                           	retl
   2162a: 66 0f 1f 44 00 00            	nopw	(%eax,%eax)

00021630 <int19>:
; int19():
; /Users/jiang/Desktop/fat32-boot/ints.cpp:115
   21630: 55                           	pushl	%ebp
   21631: 89 e5                        	movl	%esp, %ebp
   21633: 50                           	pushl	%eax
; /Users/jiang/Desktop/fat32-boot/ints.cpp:116
   21634: 66 87 db                     	xchgw	%bx, %bx
; /Users/jiang/Desktop/fat32-boot/ints.cpp:117
   21637: 8d 05 0f 27 02 00            	leal	141071, %eax
   2163d: 89 04 24                     	movl	%eax, (%esp)
   21640: e8 7b 09 00 00               	calll	0x21fc0 <_Z5printPc>
; /Users/jiang/Desktop/fat32-boot/ints.cpp:118
   21645: 83 c4 04                     	addl	$4, %esp
   21648: 5d                           	popl	%ebp
   21649: c3                           	retl
   2164a: 66 0f 1f 44 00 00            	nopw	(%eax,%eax)

00021650 <irq0>:
; irq0():
; /Users/jiang/Desktop/fat32-boot/ints.cpp:119
   21650: 55                           	pushl	%ebp
   21651: 89 e5                        	movl	%esp, %ebp
; /Users/jiang/Desktop/fat32-boot/ints.cpp:120
   21653: 5d                           	popl	%ebp
   21654: c3                           	retl
   21655: 66 66 2e 0f 1f 84 00 00 00 00 00     	nopw	%cs:(%eax,%eax)

00021660 <irq1>:
; irq1():
; /Users/jiang/Desktop/fat32-boot/ints.cpp:124
   21660: 55                           	pushl	%ebp
   21661: 89 e5                        	movl	%esp, %ebp
   21663: 50                           	pushl	%eax
; /Users/jiang/Desktop/fat32-boot/ints.cpp:125
   21664: 8d 05 21 27 02 00            	leal	141089, %eax
   2166a: 89 04 24                     	movl	%eax, (%esp)
   2166d: e8 4e 09 00 00               	calll	0x21fc0 <_Z5printPc>
; /Users/jiang/Desktop/fat32-boot/ints.cpp:126
   21672: c7 04 24 60 00 00 00         	movl	$96, (%esp)
   21679: e8 52 05 00 00               	calll	0x21bd0 <_Z7in_bytes>
   2167e: 88 c1                        	movb	%al, %cl
   21680: a1 88 4a 02 00               	movl	150152, %eax
   21685: 89 c2                        	movl	%eax, %edx
   21687: 83 c2 01                     	addl	$1, %edx
   2168a: 89 15 88 4a 02 00            	movl	%edx, 150152
   21690: 88 0c 05 88 49 02 00         	movb	%cl, 149896(,%eax)
; /Users/jiang/Desktop/fat32-boot/ints.cpp:127
   21697: a1 88 4a 02 00               	movl	150152, %eax
   2169c: 83 c0 01                     	addl	$1, %eax
   2169f: b9 00 01 00 00               	movl	$256, %ecx              # imm = 0x100
   216a4: 99                           	cltd
   216a5: f7 f9                        	idivl	%ecx
   216a7: 3b 15 8c 4a 02 00            	cmpl	150156, %edx
   216ad: 0f 85 1c 00 00 00            	jne	0x216cf <irq1+0x6f>
; /Users/jiang/Desktop/fat32-boot/ints.cpp:128
   216b3: a1 88 4a 02 00               	movl	150152, %eax
   216b8: 83 c0 ff                     	addl	$-1, %eax
   216bb: a3 88 4a 02 00               	movl	%eax, 150152
; /Users/jiang/Desktop/fat32-boot/ints.cpp:129
   216c0: a1 88 4a 02 00               	movl	150152, %eax
   216c5: 05 00 01 00 00               	addl	$256, %eax              # imm = 0x100
   216ca: a3 88 4a 02 00               	movl	%eax, 150152
; /Users/jiang/Desktop/fat32-boot/ints.cpp:131
   216cf: 8d 05 d9 27 02 00            	leal	141273, %eax
   216d5: 89 04 24                     	movl	%eax, (%esp)
   216d8: e8 e3 08 00 00               	calll	0x21fc0 <_Z5printPc>
; /Users/jiang/Desktop/fat32-boot/ints.cpp:132
   216dd: a1 88 4a 02 00               	movl	150152, %eax
   216e2: 83 e8 01                     	subl	$1, %eax
   216e5: 0f b6 04 05 88 49 02 00      	movzbl	149896(,%eax), %eax
   216ed: 89 04 24                     	movl	%eax, (%esp)
   216f0: e8 3b 09 00 00               	calll	0x22030 <_Z9print_hexj>
; /Users/jiang/Desktop/fat32-boot/ints.cpp:133
   216f5: 8d 05 30 27 02 00            	leal	141104, %eax
   216fb: 89 04 24                     	movl	%eax, (%esp)
   216fe: e8 bd 08 00 00               	calll	0x21fc0 <_Z5printPc>
; /Users/jiang/Desktop/fat32-boot/ints.cpp:134
   21703: a1 88 4a 02 00               	movl	150152, %eax
   21708: 89 04 24                     	movl	%eax, (%esp)
   2170b: e8 20 09 00 00               	calll	0x22030 <_Z9print_hexj>
; /Users/jiang/Desktop/fat32-boot/ints.cpp:135
   21710: 8d 05 37 27 02 00            	leal	141111, %eax
   21716: 89 04 24                     	movl	%eax, (%esp)
   21719: e8 a2 08 00 00               	calll	0x21fc0 <_Z5printPc>
; /Users/jiang/Desktop/fat32-boot/ints.cpp:136
   2171e: a1 8c 4a 02 00               	movl	150156, %eax
   21723: 89 04 24                     	movl	%eax, (%esp)
   21726: e8 05 09 00 00               	calll	0x22030 <_Z9print_hexj>
; /Users/jiang/Desktop/fat32-boot/ints.cpp:137
   2172b: 8d 05 40 27 02 00            	leal	141120, %eax
   21731: 89 04 24                     	movl	%eax, (%esp)
   21734: e8 87 08 00 00               	calll	0x21fc0 <_Z5printPc>
; /Users/jiang/Desktop/fat32-boot/ints.cpp:138
   21739: a1 88 4a 02 00               	movl	150152, %eax
   2173e: b9 00 01 00 00               	movl	$256, %ecx              # imm = 0x100
   21743: 99                           	cltd
   21744: f7 f9                        	idivl	%ecx
   21746: 89 15 88 4a 02 00            	movl	%edx, 150152
; /Users/jiang/Desktop/fat32-boot/ints.cpp:139
   2174c: 83 c4 04                     	addl	$4, %esp
   2174f: 5d                           	popl	%ebp
   21750: c3                           	retl
   21751: 66 66 66 66 66 66 2e 0f 1f 84 00 00 00 00 00 	nopw	%cs:(%eax,%eax)

00021760 <irq2>:
; irq2():
; /Users/jiang/Desktop/fat32-boot/ints.cpp:140
   21760: 55                           	pushl	%ebp
   21761: 89 e5                        	movl	%esp, %ebp
   21763: 50                           	pushl	%eax
   21764: 8d 05 4a 27 02 00            	leal	141130, %eax
   2176a: 89 04 24                     	movl	%eax, (%esp)
   2176d: e8 4e 08 00 00               	calll	0x21fc0 <_Z5printPc>
   21772: 83 c4 04                     	addl	$4, %esp
   21775: 5d                           	popl	%ebp
   21776: c3                           	retl
   21777: 66 0f 1f 84 00 00 00 00 00   	nopw	(%eax,%eax)

00021780 <irq3>:
; irq3():
; /Users/jiang/Desktop/fat32-boot/ints.cpp:141
   21780: 55                           	pushl	%ebp
   21781: 89 e5                        	movl	%esp, %ebp
   21783: 50                           	pushl	%eax
   21784: 8d 05 50 27 02 00            	leal	141136, %eax
   2178a: 89 04 24                     	movl	%eax, (%esp)
   2178d: e8 2e 08 00 00               	calll	0x21fc0 <_Z5printPc>
   21792: 83 c4 04                     	addl	$4, %esp
   21795: 5d                           	popl	%ebp
   21796: c3                           	retl
   21797: 66 0f 1f 84 00 00 00 00 00   	nopw	(%eax,%eax)

000217a0 <irq4>:
; irq4():
; /Users/jiang/Desktop/fat32-boot/ints.cpp:142
   217a0: 55                           	pushl	%ebp
   217a1: 89 e5                        	movl	%esp, %ebp
   217a3: 50                           	pushl	%eax
   217a4: 8d 05 56 27 02 00            	leal	141142, %eax
   217aa: 89 04 24                     	movl	%eax, (%esp)
   217ad: e8 0e 08 00 00               	calll	0x21fc0 <_Z5printPc>
   217b2: 83 c4 04                     	addl	$4, %esp
   217b5: 5d                           	popl	%ebp
   217b6: c3                           	retl
   217b7: 66 0f 1f 84 00 00 00 00 00   	nopw	(%eax,%eax)

000217c0 <irq5>:
; irq5():
; /Users/jiang/Desktop/fat32-boot/ints.cpp:143
   217c0: 55                           	pushl	%ebp
   217c1: 89 e5                        	movl	%esp, %ebp
   217c3: 50                           	pushl	%eax
   217c4: 8d 05 5c 27 02 00            	leal	141148, %eax
   217ca: 89 04 24                     	movl	%eax, (%esp)
   217cd: e8 ee 07 00 00               	calll	0x21fc0 <_Z5printPc>
   217d2: 83 c4 04                     	addl	$4, %esp
   217d5: 5d                           	popl	%ebp
   217d6: c3                           	retl
   217d7: 66 0f 1f 84 00 00 00 00 00   	nopw	(%eax,%eax)

000217e0 <irq6>:
; irq6():
; /Users/jiang/Desktop/fat32-boot/ints.cpp:144
   217e0: 55                           	pushl	%ebp
   217e1: 89 e5                        	movl	%esp, %ebp
   217e3: 50                           	pushl	%eax
   217e4: 8d 05 62 27 02 00            	leal	141154, %eax
   217ea: 89 04 24                     	movl	%eax, (%esp)
   217ed: e8 ce 07 00 00               	calll	0x21fc0 <_Z5printPc>
   217f2: 83 c4 04                     	addl	$4, %esp
   217f5: 5d                           	popl	%ebp
   217f6: c3                           	retl
   217f7: 66 0f 1f 84 00 00 00 00 00   	nopw	(%eax,%eax)

00021800 <irq7>:
; irq7():
; /Users/jiang/Desktop/fat32-boot/ints.cpp:145
   21800: 55                           	pushl	%ebp
   21801: 89 e5                        	movl	%esp, %ebp
   21803: 50                           	pushl	%eax
   21804: 8d 05 68 27 02 00            	leal	141160, %eax
   2180a: 89 04 24                     	movl	%eax, (%esp)
   2180d: e8 ae 07 00 00               	calll	0x21fc0 <_Z5printPc>
   21812: 83 c4 04                     	addl	$4, %esp
   21815: 5d                           	popl	%ebp
   21816: c3                           	retl
   21817: 66 0f 1f 84 00 00 00 00 00   	nopw	(%eax,%eax)

00021820 <irq8>:
; irq8():
; /Users/jiang/Desktop/fat32-boot/ints.cpp:146
   21820: 55                           	pushl	%ebp
   21821: 89 e5                        	movl	%esp, %ebp
   21823: 50                           	pushl	%eax
   21824: 8d 05 6e 27 02 00            	leal	141166, %eax
   2182a: 89 04 24                     	movl	%eax, (%esp)
   2182d: e8 8e 07 00 00               	calll	0x21fc0 <_Z5printPc>
   21832: 83 c4 04                     	addl	$4, %esp
   21835: 5d                           	popl	%ebp
   21836: c3                           	retl
   21837: 66 0f 1f 84 00 00 00 00 00   	nopw	(%eax,%eax)

00021840 <irq9>:
; irq9():
; /Users/jiang/Desktop/fat32-boot/ints.cpp:147
   21840: 55                           	pushl	%ebp
   21841: 89 e5                        	movl	%esp, %ebp
   21843: 50                           	pushl	%eax
   21844: 8d 05 74 27 02 00            	leal	141172, %eax
   2184a: 89 04 24                     	movl	%eax, (%esp)
   2184d: e8 6e 07 00 00               	calll	0x21fc0 <_Z5printPc>
   21852: 83 c4 04                     	addl	$4, %esp
   21855: 5d                           	popl	%ebp
   21856: c3                           	retl
   21857: 66 0f 1f 84 00 00 00 00 00   	nopw	(%eax,%eax)

00021860 <irq10>:
; irq10():
; /Users/jiang/Desktop/fat32-boot/ints.cpp:148
   21860: 55                           	pushl	%ebp
   21861: 89 e5                        	movl	%esp, %ebp
   21863: 50                           	pushl	%eax
   21864: 8d 05 7a 27 02 00            	leal	141178, %eax
   2186a: 89 04 24                     	movl	%eax, (%esp)
   2186d: e8 4e 07 00 00               	calll	0x21fc0 <_Z5printPc>
   21872: 83 c4 04                     	addl	$4, %esp
   21875: 5d                           	popl	%ebp
   21876: c3                           	retl
   21877: 66 0f 1f 84 00 00 00 00 00   	nopw	(%eax,%eax)

00021880 <irq11>:
; irq11():
; /Users/jiang/Desktop/fat32-boot/ints.cpp:149
   21880: 55                           	pushl	%ebp
   21881: 89 e5                        	movl	%esp, %ebp
   21883: 50                           	pushl	%eax
   21884: 8d 05 81 27 02 00            	leal	141185, %eax
   2188a: 89 04 24                     	movl	%eax, (%esp)
   2188d: e8 2e 07 00 00               	calll	0x21fc0 <_Z5printPc>
   21892: 83 c4 04                     	addl	$4, %esp
   21895: 5d                           	popl	%ebp
   21896: c3                           	retl
   21897: 66 0f 1f 84 00 00 00 00 00   	nopw	(%eax,%eax)

000218a0 <irq12>:
; irq12():
; /Users/jiang/Desktop/fat32-boot/ints.cpp:151
   218a0: 55                           	pushl	%ebp
   218a1: 89 e5                        	movl	%esp, %ebp
   218a3: 83 ec 08                     	subl	$8, %esp
; /Users/jiang/Desktop/fat32-boot/ints.cpp:154
   218a6: 8d 05 88 27 02 00            	leal	141192, %eax
   218ac: 89 04 24                     	movl	%eax, (%esp)
   218af: e8 0c 07 00 00               	calll	0x21fc0 <_Z5printPc>
; /Users/jiang/Desktop/fat32-boot/ints.cpp:155
   218b4: c7 04 24 60 00 00 00         	movl	$96, (%esp)
   218bb: e8 10 03 00 00               	calll	0x21bd0 <_Z7in_bytes>
   218c0: 88 45 ff                     	movb	%al, -1(%ebp)
; /Users/jiang/Desktop/fat32-boot/ints.cpp:156
   218c3: 0f be 4d ff                  	movsbl	-1(%ebp), %ecx
   218c7: a1 90 4c 02 00               	movl	150672, %eax
   218cc: 89 c2                        	movl	%eax, %edx
   218ce: 83 c2 01                     	addl	$1, %edx
   218d1: 89 15 90 4c 02 00            	movl	%edx, 150672
   218d7: 89 0c 85 90 4a 02 00         	movl	%ecx, 150160(,%eax,4)
; /Users/jiang/Desktop/fat32-boot/ints.cpp:157
   218de: a1 90 4c 02 00               	movl	150672, %eax
   218e3: b9 80 00 00 00               	movl	$128, %ecx
   218e8: 99                           	cltd
   218e9: f7 f9                        	idivl	%ecx
   218eb: 89 15 90 4c 02 00            	movl	%edx, 150672
; /Users/jiang/Desktop/fat32-boot/ints.cpp:158
   218f1: a1 94 4c 02 00               	movl	150676, %eax
   218f6: 83 c0 01                     	addl	$1, %eax
   218f9: a3 94 4c 02 00               	movl	%eax, 150676
; /Users/jiang/Desktop/fat32-boot/ints.cpp:159
   218fe: 83 3d 94 4c 02 00 03         	cmpl	$3, 150676
   21905: 0f 85 5f 01 00 00            	jne	0x21a6a <irq12+0x1ca>
; /Users/jiang/Desktop/fat32-boot/ints.cpp:160
   2190b: c7 05 94 4c 02 00 00 00 00 00	movl	$0, 150676
; /Users/jiang/Desktop/fat32-boot/ints.cpp:162
   21915: a1 90 4c 02 00               	movl	150672, %eax
   2191a: 83 e8 01                     	subl	$1, %eax
   2191d: 83 f8 00                     	cmpl	$0, %eax
   21920: 0f 8d 17 00 00 00            	jge	0x2193d <irq12+0x9d>
; /Users/jiang/Desktop/fat32-boot/ints.cpp:163
   21926: a1 90 4c 02 00               	movl	150672, %eax
   2192b: 83 e8 01                     	subl	$1, %eax
   2192e: 8b 04 85 90 4c 02 00         	movl	150672(,%eax,4), %eax
   21935: 88 45 fe                     	movb	%al, -2(%ebp)
; /Users/jiang/Desktop/fat32-boot/ints.cpp:164
   21938: e9 12 00 00 00               	jmp	0x2194f <irq12+0xaf>
; /Users/jiang/Desktop/fat32-boot/ints.cpp:165
   2193d: a1 90 4c 02 00               	movl	150672, %eax
   21942: 83 e8 01                     	subl	$1, %eax
   21945: 8b 04 85 90 4a 02 00         	movl	150160(,%eax,4), %eax
   2194c: 88 45 fe                     	movb	%al, -2(%ebp)
; /Users/jiang/Desktop/fat32-boot/ints.cpp:167
   2194f: a1 90 4c 02 00               	movl	150672, %eax
   21954: 83 e8 02                     	subl	$2, %eax
   21957: 83 f8 00                     	cmpl	$0, %eax
   2195a: 0f 8d 17 00 00 00            	jge	0x21977 <irq12+0xd7>
; /Users/jiang/Desktop/fat32-boot/ints.cpp:168
   21960: a1 90 4c 02 00               	movl	150672, %eax
   21965: 83 e8 02                     	subl	$2, %eax
   21968: 8b 04 85 90 4c 02 00         	movl	150672(,%eax,4), %eax
   2196f: 88 45 fd                     	movb	%al, -3(%ebp)
; /Users/jiang/Desktop/fat32-boot/ints.cpp:169
   21972: e9 12 00 00 00               	jmp	0x21989 <irq12+0xe9>
; /Users/jiang/Desktop/fat32-boot/ints.cpp:170
   21977: a1 90 4c 02 00               	movl	150672, %eax
   2197c: 83 e8 02                     	subl	$2, %eax
   2197f: 8b 04 85 90 4a 02 00         	movl	150160(,%eax,4), %eax
   21986: 88 45 fd                     	movb	%al, -3(%ebp)
; /Users/jiang/Desktop/fat32-boot/ints.cpp:172
   21989: a1 90 4c 02 00               	movl	150672, %eax
   2198e: 83 e8 03                     	subl	$3, %eax
   21991: 83 f8 00                     	cmpl	$0, %eax
   21994: 0f 8d 17 00 00 00            	jge	0x219b1 <irq12+0x111>
; /Users/jiang/Desktop/fat32-boot/ints.cpp:173
   2199a: a1 90 4c 02 00               	movl	150672, %eax
   2199f: 83 e8 03                     	subl	$3, %eax
   219a2: 8b 04 85 90 4c 02 00         	movl	150672(,%eax,4), %eax
   219a9: 88 45 fc                     	movb	%al, -4(%ebp)
; /Users/jiang/Desktop/fat32-boot/ints.cpp:174
   219ac: e9 12 00 00 00               	jmp	0x219c3 <irq12+0x123>
; /Users/jiang/Desktop/fat32-boot/ints.cpp:175
   219b1: a1 90 4c 02 00               	movl	150672, %eax
   219b6: 83 e8 03                     	subl	$3, %eax
   219b9: 8b 04 85 90 4a 02 00         	movl	150160(,%eax,4), %eax
   219c0: 88 45 fc                     	movb	%al, -4(%ebp)
; /Users/jiang/Desktop/fat32-boot/ints.cpp:177
   219c3: 8d 05 8f 27 02 00            	leal	141199, %eax
   219c9: 89 04 24                     	movl	%eax, (%esp)
   219cc: e8 ef 05 00 00               	calll	0x21fc0 <_Z5printPc>
; /Users/jiang/Desktop/fat32-boot/ints.cpp:178
   219d1: a1 90 4c 02 00               	movl	150672, %eax
   219d6: 89 04 24                     	movl	%eax, (%esp)
   219d9: e8 52 06 00 00               	calll	0x22030 <_Z9print_hexj>
; /Users/jiang/Desktop/fat32-boot/ints.cpp:179
   219de: 8d 05 9d 27 02 00            	leal	141213, %eax
   219e4: 89 04 24                     	movl	%eax, (%esp)
   219e7: e8 d4 05 00 00               	calll	0x21fc0 <_Z5printPc>
; /Users/jiang/Desktop/fat32-boot/ints.cpp:180
   219ec: 0f be 45 fc                  	movsbl	-4(%ebp), %eax
   219f0: 89 04 24                     	movl	%eax, (%esp)
   219f3: e8 a8 06 00 00               	calll	0x220a0 <_Z9print_binj>
; /Users/jiang/Desktop/fat32-boot/ints.cpp:181
   219f8: 8d 05 a3 27 02 00            	leal	141219, %eax
   219fe: 89 04 24                     	movl	%eax, (%esp)
   21a01: e8 ba 05 00 00               	calll	0x21fc0 <_Z5printPc>
; /Users/jiang/Desktop/fat32-boot/ints.cpp:182
   21a06: 0f be 45 fd                  	movsbl	-3(%ebp), %eax
   21a0a: 89 04 24                     	movl	%eax, (%esp)
   21a0d: e8 8e 06 00 00               	calll	0x220a0 <_Z9print_binj>
; /Users/jiang/Desktop/fat32-boot/ints.cpp:183
   21a12: 8d 05 a9 27 02 00            	leal	141225, %eax
   21a18: 89 04 24                     	movl	%eax, (%esp)
   21a1b: e8 a0 05 00 00               	calll	0x21fc0 <_Z5printPc>
; /Users/jiang/Desktop/fat32-boot/ints.cpp:184
   21a20: 0f be 45 fe                  	movsbl	-2(%ebp), %eax
   21a24: 89 04 24                     	movl	%eax, (%esp)
   21a27: e8 74 06 00 00               	calll	0x220a0 <_Z9print_binj>
; /Users/jiang/Desktop/fat32-boot/ints.cpp:185
   21a2c: 8d 05 7f 27 02 00            	leal	141183, %eax
   21a32: 89 04 24                     	movl	%eax, (%esp)
   21a35: e8 86 05 00 00               	calll	0x21fc0 <_Z5printPc>
; /Users/jiang/Desktop/fat32-boot/ints.cpp:186
   21a3a: 0f be 45 fc                  	movsbl	-4(%ebp), %eax
   21a3e: 83 e0 08                     	andl	$8, %eax
   21a41: 83 f8 00                     	cmpl	$0, %eax
   21a44: 0f 85 0a 00 00 00            	jne	0x21a54 <irq12+0x1b4>
; /Users/jiang/Desktop/fat32-boot/ints.cpp:187
   21a4a: c7 05 94 4c 02 00 ff ff ff ff	movl	$4294967295, 150676     # imm = 0xFFFFFFFF
; /Users/jiang/Desktop/fat32-boot/ints.cpp:189
   21a54: 0f be 45 fd                  	movsbl	-3(%ebp), %eax
   21a58: a3 9c 4c 02 00               	movl	%eax, 150684
; /Users/jiang/Desktop/fat32-boot/ints.cpp:190
   21a5d: 0f be 4d fe                  	movsbl	-2(%ebp), %ecx
   21a61: 31 c0                        	xorl	%eax, %eax
   21a63: 29 c8                        	subl	%ecx, %eax
   21a65: a3 98 4c 02 00               	movl	%eax, 150680
; /Users/jiang/Desktop/fat32-boot/ints.cpp:192
   21a6a: 83 c4 08                     	addl	$8, %esp
   21a6d: 5d                           	popl	%ebp
   21a6e: c3                           	retl
   21a6f: 90                           	nop

00021a70 <irq13>:
; irq13():
; /Users/jiang/Desktop/fat32-boot/ints.cpp:193
   21a70: 55                           	pushl	%ebp
   21a71: 89 e5                        	movl	%esp, %ebp
   21a73: 50                           	pushl	%eax
   21a74: 8d 05 af 27 02 00            	leal	141231, %eax
   21a7a: 89 04 24                     	movl	%eax, (%esp)
   21a7d: e8 3e 05 00 00               	calll	0x21fc0 <_Z5printPc>
   21a82: 83 c4 04                     	addl	$4, %esp
   21a85: 5d                           	popl	%ebp
   21a86: c3                           	retl
   21a87: 66 0f 1f 84 00 00 00 00 00   	nopw	(%eax,%eax)

00021a90 <irq14>:
; irq14():
; /Users/jiang/Desktop/fat32-boot/ints.cpp:194
   21a90: 55                           	pushl	%ebp
   21a91: 89 e5                        	movl	%esp, %ebp
   21a93: 50                           	pushl	%eax
   21a94: 8d 05 b6 27 02 00            	leal	141238, %eax
   21a9a: 89 04 24                     	movl	%eax, (%esp)
   21a9d: e8 1e 05 00 00               	calll	0x21fc0 <_Z5printPc>
   21aa2: 83 c4 04                     	addl	$4, %esp
   21aa5: 5d                           	popl	%ebp
   21aa6: c3                           	retl
   21aa7: 66 0f 1f 84 00 00 00 00 00   	nopw	(%eax,%eax)

00021ab0 <irq15>:
; irq15():
; /Users/jiang/Desktop/fat32-boot/ints.cpp:195
   21ab0: 55                           	pushl	%ebp
   21ab1: 89 e5                        	movl	%esp, %ebp
   21ab3: 50                           	pushl	%eax
   21ab4: 8d 05 bd 27 02 00            	leal	141245, %eax
   21aba: 89 04 24                     	movl	%eax, (%esp)
   21abd: e8 fe 04 00 00               	calll	0x21fc0 <_Z5printPc>
   21ac2: 83 c4 04                     	addl	$4, %esp
   21ac5: 5d                           	popl	%ebp
   21ac6: c3                           	retl
   21ac7: 66 90                        	nop
   21ac9: 66 90                        	nop
   21acb: 66 90                        	nop
   21acd: 66 90                        	nop
   21acf: 90                           	nop

00021ad0 <_Z10mouse_readv>:
; _Z10mouse_readv():
; /Users/jiang/Desktop/fat32-boot/ps2mouse.cpp:39
   21ad0: 55                           	pushl	%ebp
   21ad1: 89 e5                        	movl	%esp, %ebp
   21ad3: 50                           	pushl	%eax
; /Users/jiang/Desktop/fat32-boot/ps2mouse.cpp:41
   21ad4: 31 c0                        	xorl	%eax, %eax
   21ad6: c7 04 24 00 00 00 00         	movl	$0, (%esp)
   21add: e8 ae 09 00 00               	calll	0x22490 <_Z10mouse_waith>
; /Users/jiang/Desktop/fat32-boot/ps2mouse.cpp:42
   21ae2: c7 04 24 60 00 00 00         	movl	$96, (%esp)
   21ae9: e8 e2 00 00 00               	calll	0x21bd0 <_Z7in_bytes>
   21aee: 0f b6 c0                     	movzbl	%al, %eax
   21af1: 83 c4 04                     	addl	$4, %esp
   21af4: 5d                           	popl	%ebp
   21af5: c3                           	retl
   21af6: 66 2e 0f 1f 84 00 00 00 00 00	nopw	%cs:(%eax,%eax)

00021b00 <_Z13mouse_installv>:
; _Z13mouse_installv():
; /Users/jiang/Desktop/fat32-boot/ps2mouse.cpp:45
   21b00: 55                           	pushl	%ebp
   21b01: 89 e5                        	movl	%esp, %ebp
   21b03: 83 ec 0c                     	subl	$12, %esp
; /Users/jiang/Desktop/fat32-boot/ps2mouse.cpp:49
   21b06: c7 04 24 01 00 00 00         	movl	$1, (%esp)
   21b0d: e8 7e 09 00 00               	calll	0x22490 <_Z10mouse_waith>
; /Users/jiang/Desktop/fat32-boot/ps2mouse.cpp:50
   21b12: c7 04 24 64 00 00 00         	movl	$100, (%esp)
   21b19: c7 44 24 04 a8 00 00 00      	movl	$168, 4(%esp)
   21b21: e8 0a 01 00 00               	calll	0x21c30 <_Z8out_bytesh>
; /Users/jiang/Desktop/fat32-boot/ps2mouse.cpp:53
   21b26: c7 04 24 01 00 00 00         	movl	$1, (%esp)
   21b2d: e8 5e 09 00 00               	calll	0x22490 <_Z10mouse_waith>
; /Users/jiang/Desktop/fat32-boot/ps2mouse.cpp:54
   21b32: c7 04 24 64 00 00 00         	movl	$100, (%esp)
   21b39: c7 44 24 04 20 00 00 00      	movl	$32, 4(%esp)
   21b41: e8 ea 00 00 00               	calll	0x21c30 <_Z8out_bytesh>
; /Users/jiang/Desktop/fat32-boot/ps2mouse.cpp:55
   21b46: 31 c0                        	xorl	%eax, %eax
   21b48: c7 04 24 00 00 00 00         	movl	$0, (%esp)
   21b4f: e8 3c 09 00 00               	calll	0x22490 <_Z10mouse_waith>
; /Users/jiang/Desktop/fat32-boot/ps2mouse.cpp:56
   21b54: c7 04 24 60 00 00 00         	movl	$96, (%esp)
   21b5b: e8 70 00 00 00               	calll	0x21bd0 <_Z7in_bytes>
   21b60: 0f b6 c0                     	movzbl	%al, %eax
   21b63: 83 c8 02                     	orl	$2, %eax
   21b66: 88 45 ff                     	movb	%al, -1(%ebp)
; /Users/jiang/Desktop/fat32-boot/ps2mouse.cpp:57
   21b69: c7 04 24 01 00 00 00         	movl	$1, (%esp)
   21b70: e8 1b 09 00 00               	calll	0x22490 <_Z10mouse_waith>
; /Users/jiang/Desktop/fat32-boot/ps2mouse.cpp:58
   21b75: c7 04 24 64 00 00 00         	movl	$100, (%esp)
   21b7c: c7 44 24 04 60 00 00 00      	movl	$96, 4(%esp)
   21b84: e8 a7 00 00 00               	calll	0x21c30 <_Z8out_bytesh>
; /Users/jiang/Desktop/fat32-boot/ps2mouse.cpp:59
   21b89: c7 04 24 01 00 00 00         	movl	$1, (%esp)
   21b90: e8 fb 08 00 00               	calll	0x22490 <_Z10mouse_waith>
; /Users/jiang/Desktop/fat32-boot/ps2mouse.cpp:60
   21b95: c7 04 24 60 00 00 00         	movl	$96, (%esp)
   21b9c: 0f b6 45 ff                  	movzbl	-1(%ebp), %eax
   21ba0: 89 44 24 04                  	movl	%eax, 4(%esp)
   21ba4: e8 87 00 00 00               	calll	0x21c30 <_Z8out_bytesh>
; /Users/jiang/Desktop/fat32-boot/ps2mouse.cpp:63
   21ba9: c7 04 24 f6 00 00 00         	movl	$246, (%esp)
   21bb0: e8 8b 09 00 00               	calll	0x22540 <_Z11mouse_writeh>
; /Users/jiang/Desktop/fat32-boot/ps2mouse.cpp:64
   21bb5: e8 16 ff ff ff               	calll	0x21ad0 <_Z10mouse_readv>
; /Users/jiang/Desktop/fat32-boot/ps2mouse.cpp:67
   21bba: c7 04 24 f4 00 00 00         	movl	$244, (%esp)
   21bc1: e8 7a 09 00 00               	calll	0x22540 <_Z11mouse_writeh>
; /Users/jiang/Desktop/fat32-boot/ps2mouse.cpp:68
   21bc6: e8 05 ff ff ff               	calll	0x21ad0 <_Z10mouse_readv>
; /Users/jiang/Desktop/fat32-boot/ps2mouse.cpp:71
   21bcb: 83 c4 0c                     	addl	$12, %esp
   21bce: 5d                           	popl	%ebp
   21bcf: c3                           	retl

00021bd0 <_Z7in_bytes>:
; _Z7in_bytes():
; /Users/jiang/Desktop/fat32-boot/port.cpp:4
   21bd0: 55                           	pushl	%ebp
   21bd1: 89 e5                        	movl	%esp, %ebp
   21bd3: 50                           	pushl	%eax
   21bd4: 66 8b 45 08                  	movw	8(%ebp), %ax
; /Users/jiang/Desktop/fat32-boot/port.cpp:6
   21bd8: 66 8b 55 08                  	movw	8(%ebp), %dx
   21bdc: ec                           	inb	%dx, %al
   21bdd: 88 45 ff                     	movb	%al, -1(%ebp)
; /Users/jiang/Desktop/fat32-boot/port.cpp:7
   21be0: 0f b6 45 ff                  	movzbl	-1(%ebp), %eax
   21be4: 83 c4 04                     	addl	$4, %esp
   21be7: 5d                           	popl	%ebp
   21be8: c3                           	retl
   21be9: 0f 1f 80 00 00 00 00         	nopl	(%eax)

00021bf0 <_Z7in_words>:
; _Z7in_words():
; /Users/jiang/Desktop/fat32-boot/port.cpp:9
   21bf0: 55                           	pushl	%ebp
   21bf1: 89 e5                        	movl	%esp, %ebp
   21bf3: 50                           	pushl	%eax
   21bf4: 66 8b 45 08                  	movw	8(%ebp), %ax
; /Users/jiang/Desktop/fat32-boot/port.cpp:11
   21bf8: 66 8b 55 08                  	movw	8(%ebp), %dx
   21bfc: 66 ed                        	inw	%dx, %ax
   21bfe: 66 89 45 fe                  	movw	%ax, -2(%ebp)
; /Users/jiang/Desktop/fat32-boot/port.cpp:12
   21c02: 0f b7 45 fe                  	movzwl	-2(%ebp), %eax
   21c06: 83 c4 04                     	addl	$4, %esp
   21c09: 5d                           	popl	%ebp
   21c0a: c3                           	retl
   21c0b: 0f 1f 44 00 00               	nopl	(%eax,%eax)

00021c10 <_Z8in_dwords>:
; _Z8in_dwords():
; /Users/jiang/Desktop/fat32-boot/port.cpp:14
   21c10: 55                           	pushl	%ebp
   21c11: 89 e5                        	movl	%esp, %ebp
   21c13: 50                           	pushl	%eax
   21c14: 66 8b 45 08                  	movw	8(%ebp), %ax
; /Users/jiang/Desktop/fat32-boot/port.cpp:16
   21c18: 66 8b 55 08                  	movw	8(%ebp), %dx
   21c1c: ed                           	inl	%dx, %eax
   21c1d: 89 45 fc                     	movl	%eax, -4(%ebp)
; /Users/jiang/Desktop/fat32-boot/port.cpp:17
   21c20: 8b 45 fc                     	movl	-4(%ebp), %eax
   21c23: 83 c4 04                     	addl	$4, %esp
   21c26: 5d                           	popl	%ebp
   21c27: c3                           	retl
   21c28: 0f 1f 84 00 00 00 00 00      	nopl	(%eax,%eax)

00021c30 <_Z8out_bytesh>:
; _Z8out_bytesh():
; /Users/jiang/Desktop/fat32-boot/port.cpp:19
   21c30: 55                           	pushl	%ebp
   21c31: 89 e5                        	movl	%esp, %ebp
   21c33: 8a 45 0c                     	movb	12(%ebp), %al
   21c36: 66 8b 45 08                  	movw	8(%ebp), %ax
; /Users/jiang/Desktop/fat32-boot/port.cpp:20
   21c3a: 8a 45 0c                     	movb	12(%ebp), %al
   21c3d: 66 8b 55 08                  	movw	8(%ebp), %dx
   21c41: ee                           	outb	%al, %dx
; /Users/jiang/Desktop/fat32-boot/port.cpp:21
   21c42: 5d                           	popl	%ebp
   21c43: c3                           	retl
   21c44: 66 66 66 2e 0f 1f 84 00 00 00 00 00  	nopw	%cs:(%eax,%eax)

00021c50 <_Z8out_wordst>:
; _Z8out_wordst():
; /Users/jiang/Desktop/fat32-boot/port.cpp:22
   21c50: 55                           	pushl	%ebp
   21c51: 89 e5                        	movl	%esp, %ebp
   21c53: 66 8b 45 0c                  	movw	12(%ebp), %ax
   21c57: 66 8b 45 08                  	movw	8(%ebp), %ax
; /Users/jiang/Desktop/fat32-boot/port.cpp:23
   21c5b: 66 8b 45 0c                  	movw	12(%ebp), %ax
   21c5f: 66 8b 55 08                  	movw	8(%ebp), %dx
   21c63: 66 ef                        	outw	%ax, %dx
; /Users/jiang/Desktop/fat32-boot/port.cpp:24
   21c65: 5d                           	popl	%ebp
   21c66: c3                           	retl
   21c67: 66 0f 1f 84 00 00 00 00 00   	nopw	(%eax,%eax)

00021c70 <_Z9out_dwordsj>:
; _Z9out_dwordsj():
; /Users/jiang/Desktop/fat32-boot/port.cpp:25
   21c70: 55                           	pushl	%ebp
   21c71: 89 e5                        	movl	%esp, %ebp
   21c73: 8b 45 0c                     	movl	12(%ebp), %eax
   21c76: 66 8b 45 08                  	movw	8(%ebp), %ax
; /Users/jiang/Desktop/fat32-boot/port.cpp:26
   21c7a: 8b 45 0c                     	movl	12(%ebp), %eax
   21c7d: 66 8b 55 08                  	movw	8(%ebp), %dx
   21c81: ef                           	outl	%eax, %dx
; /Users/jiang/Desktop/fat32-boot/port.cpp:27
   21c82: 5d                           	popl	%ebp
   21c83: c3                           	retl
   21c84: 66 90                        	nop
   21c86: 66 90                        	nop
   21c88: 66 90                        	nop
   21c8a: 66 90                        	nop
   21c8c: 66 90                        	nop
   21c8e: 66 90                        	nop

00021c90 <_Z5int86iP4regsS0_>:
; _Z5int86iP4regsS0_():
; /Users/jiang/Desktop/fat32-boot/int86.cpp:3
   21c90: 55                           	pushl	%ebp
   21c91: 89 e5                        	movl	%esp, %ebp
   21c93: 50                           	pushl	%eax
   21c94: 8b 45 10                     	movl	16(%ebp), %eax
   21c97: 8b 45 0c                     	movl	12(%ebp), %eax
   21c9a: 8b 45 08                     	movl	8(%ebp), %eax
; /Users/jiang/Desktop/fat32-boot/int86.cpp:5
   21c9d: c7 45 fc 00 00 00 00         	movl	$0, -4(%ebp)
   21ca4: 8b 45 fc                     	movl	-4(%ebp), %eax
   21ca7: 3b 05 54 41 02 00            	cmpl	147796, %eax
   21cad: 0f 8d 23 00 00 00            	jge	0x21cd6 <_Z5int86iP4regsS0_+0x46>
; /Users/jiang/Desktop/fat32-boot/int86.cpp:6
   21cb3: 8b 45 fc                     	movl	-4(%ebp), %eax
   21cb6: 8a 14 05 10 40 02 00         	movb	147472(,%eax), %dl
   21cbd: 8b 4d fc                     	movl	-4(%ebp), %ecx
   21cc0: b8 00 7c 00 00               	movl	$31744, %eax            # imm = 0x7C00
   21cc5: 88 14 08                     	movb	%dl, (%eax,%ecx)
; /Users/jiang/Desktop/fat32-boot/int86.cpp:5
   21cc8: 8b 45 fc                     	movl	-4(%ebp), %eax
   21ccb: 83 c0 01                     	addl	$1, %eax
   21cce: 89 45 fc                     	movl	%eax, -4(%ebp)
   21cd1: e9 ce ff ff ff               	jmp	0x21ca4 <_Z5int86iP4regsS0_+0x14>
; /Users/jiang/Desktop/fat32-boot/int86.cpp:9
   21cd6: 8b 45 0c                     	movl	12(%ebp), %eax
   21cd9: 8b 08                        	movl	(%eax), %ecx
   21cdb: b8 00 00 01 00               	movl	$65536, %eax            # imm = 0x10000
   21ce0: 89 08                        	movl	%ecx, (%eax)
; /Users/jiang/Desktop/fat32-boot/int86.cpp:10
   21ce2: 8b 45 0c                     	movl	12(%ebp), %eax
   21ce5: 8b 48 04                     	movl	4(%eax), %ecx
   21ce8: b8 00 00 01 00               	movl	$65536, %eax            # imm = 0x10000
   21ced: 89 48 04                     	movl	%ecx, 4(%eax)
; /Users/jiang/Desktop/fat32-boot/int86.cpp:11
   21cf0: 8b 45 0c                     	movl	12(%ebp), %eax
   21cf3: 8b 48 08                     	movl	8(%eax), %ecx
   21cf6: b8 00 00 01 00               	movl	$65536, %eax            # imm = 0x10000
   21cfb: 89 48 08                     	movl	%ecx, 8(%eax)
; /Users/jiang/Desktop/fat32-boot/int86.cpp:12
   21cfe: 8b 45 0c                     	movl	12(%ebp), %eax
   21d01: 8b 48 0c                     	movl	12(%eax), %ecx
   21d04: b8 00 00 01 00               	movl	$65536, %eax            # imm = 0x10000
   21d09: 89 48 0c                     	movl	%ecx, 12(%eax)
; /Users/jiang/Desktop/fat32-boot/int86.cpp:13
   21d0c: 8b 45 0c                     	movl	12(%ebp), %eax
   21d0f: 8b 48 10                     	movl	16(%eax), %ecx
   21d12: b8 00 00 01 00               	movl	$65536, %eax            # imm = 0x10000
   21d17: 89 48 10                     	movl	%ecx, 16(%eax)
; /Users/jiang/Desktop/fat32-boot/int86.cpp:14
   21d1a: 8b 45 0c                     	movl	12(%ebp), %eax
   21d1d: 8b 48 14                     	movl	20(%eax), %ecx
   21d20: b8 00 00 01 00               	movl	$65536, %eax            # imm = 0x10000
   21d25: 89 48 14                     	movl	%ecx, 20(%eax)
; /Users/jiang/Desktop/fat32-boot/int86.cpp:15
   21d28: 8b 45 0c                     	movl	12(%ebp), %eax
   21d2b: 8b 48 18                     	movl	24(%eax), %ecx
   21d2e: b8 00 00 01 00               	movl	$65536, %eax            # imm = 0x10000
   21d33: 89 48 18                     	movl	%ecx, 24(%eax)
; /Users/jiang/Desktop/fat32-boot/int86.cpp:16
   21d36: 8b 45 0c                     	movl	12(%ebp), %eax
   21d39: 8b 48 28                     	movl	40(%eax), %ecx
   21d3c: b8 00 00 01 00               	movl	$65536, %eax            # imm = 0x10000
   21d41: 89 48 28                     	movl	%ecx, 40(%eax)
; /Users/jiang/Desktop/fat32-boot/int86.cpp:17
   21d44: 8b 45 0c                     	movl	12(%ebp), %eax
   21d47: 8b 48 24                     	movl	36(%eax), %ecx
   21d4a: b8 00 00 01 00               	movl	$65536, %eax            # imm = 0x10000
   21d4f: 89 48 24                     	movl	%ecx, 36(%eax)
; /Users/jiang/Desktop/fat32-boot/int86.cpp:18
   21d52: 8b 4d 08                     	movl	8(%ebp), %ecx
   21d55: b8 00 00 01 00               	movl	$65536, %eax            # imm = 0x10000
   21d5a: 89 48 2c                     	movl	%ecx, 44(%eax)
; /Users/jiang/Desktop/fat32-boot/int86.cpp:19
   21d5d: 06                           	pushl	%es
; /Users/jiang/Desktop/fat32-boot/int86.cpp:20
   21d5e: 1e                           	pushl	%ds
; /Users/jiang/Desktop/fat32-boot/int86.cpp:21
   21d5f: e8 bc e2 ff ff               	calll	0x20020 <to_real>
; /Users/jiang/Desktop/fat32-boot/int86.cpp:22
   21d64: 1f                           	popl	%ds
; /Users/jiang/Desktop/fat32-boot/int86.cpp:23
   21d65: 07                           	popl	%es
; /Users/jiang/Desktop/fat32-boot/int86.cpp:24
   21d66: 83 7d 10 00                  	cmpl	$0, 16(%ebp)
   21d6a: 0f 84 60 00 00 00            	je	0x21dd0 <_Z5int86iP4regsS0_+0x140>
; /Users/jiang/Desktop/fat32-boot/int86.cpp:25
   21d70: b8 00 00 01 00               	movl	$65536, %eax            # imm = 0x10000
   21d75: 8b 08                        	movl	(%eax), %ecx
   21d77: 8b 45 10                     	movl	16(%ebp), %eax
   21d7a: 89 08                        	movl	%ecx, (%eax)
; /Users/jiang/Desktop/fat32-boot/int86.cpp:26
   21d7c: b8 00 00 01 00               	movl	$65536, %eax            # imm = 0x10000
   21d81: 8b 48 04                     	movl	4(%eax), %ecx
   21d84: 8b 45 10                     	movl	16(%ebp), %eax
   21d87: 89 48 04                     	movl	%ecx, 4(%eax)
; /Users/jiang/Desktop/fat32-boot/int86.cpp:27
   21d8a: b8 00 00 01 00               	movl	$65536, %eax            # imm = 0x10000
   21d8f: 8b 48 08                     	movl	8(%eax), %ecx
   21d92: 8b 45 10                     	movl	16(%ebp), %eax
   21d95: 89 48 08                     	movl	%ecx, 8(%eax)
; /Users/jiang/Desktop/fat32-boot/int86.cpp:28
   21d98: b8 00 00 01 00               	movl	$65536, %eax            # imm = 0x10000
   21d9d: 8b 48 0c                     	movl	12(%eax), %ecx
   21da0: 8b 45 10                     	movl	16(%ebp), %eax
   21da3: 89 48 0c                     	movl	%ecx, 12(%eax)
; /Users/jiang/Desktop/fat32-boot/int86.cpp:29
   21da6: b8 00 00 01 00               	movl	$65536, %eax            # imm = 0x10000
   21dab: 8b 48 10                     	movl	16(%eax), %ecx
   21dae: 8b 45 10                     	movl	16(%ebp), %eax
   21db1: 89 48 10                     	movl	%ecx, 16(%eax)
; /Users/jiang/Desktop/fat32-boot/int86.cpp:30
   21db4: b8 00 00 01 00               	movl	$65536, %eax            # imm = 0x10000
   21db9: 8b 48 14                     	movl	20(%eax), %ecx
   21dbc: 8b 45 10                     	movl	16(%ebp), %eax
   21dbf: 89 48 14                     	movl	%ecx, 20(%eax)
; /Users/jiang/Desktop/fat32-boot/int86.cpp:31
   21dc2: b8 00 00 01 00               	movl	$65536, %eax            # imm = 0x10000
   21dc7: 8b 48 18                     	movl	24(%eax), %ecx
   21dca: 8b 45 10                     	movl	16(%ebp), %eax
   21dcd: 89 48 18                     	movl	%ecx, 24(%eax)
; /Users/jiang/Desktop/fat32-boot/int86.cpp:33
   21dd0: 83 c4 04                     	addl	$4, %esp
   21dd3: 5d                           	popl	%ebp
   21dd4: c3                           	retl
   21dd5: 66 90                        	nop
   21dd7: 66 90                        	nop
   21dd9: 66 90                        	nop
   21ddb: 66 90                        	nop
   21ddd: 66 90                        	nop
   21ddf: 90                           	nop

00021de0 <_Z6to_binjPc>:
; _Z6to_binjPc():
; /Users/jiang/Desktop/fat32-boot/stdlib.cpp:3
   21de0: 55                           	pushl	%ebp
   21de1: 89 e5                        	movl	%esp, %ebp
   21de3: 50                           	pushl	%eax
   21de4: 8b 45 0c                     	movl	12(%ebp), %eax
   21de7: 8b 45 08                     	movl	8(%ebp), %eax
; /Users/jiang/Desktop/fat32-boot/stdlib.cpp:4
   21dea: c7 45 fc 00 00 00 00         	movl	$0, -4(%ebp)
   21df1: 83 7d fc 20                  	cmpl	$32, -4(%ebp)
   21df5: 0f 8d 35 00 00 00            	jge	0x21e30 <_Z6to_binjPc+0x50>
; /Users/jiang/Desktop/fat32-boot/stdlib.cpp:5
   21dfb: 8b 45 08                     	movl	8(%ebp), %eax
   21dfe: 8b 4d fc                     	movl	-4(%ebp), %ecx
   21e01: ba 01 00 00 00               	movl	$1, %edx
   21e06: d3 e2                        	shll	%cl, %edx
   21e08: 89 d1                        	movl	%edx, %ecx
   21e0a: 21 c8                        	andl	%ecx, %eax
   21e0c: 83 e0 01                     	andl	$1, %eax
   21e0f: 83 c0 30                     	addl	$48, %eax
   21e12: 88 c2                        	movb	%al, %dl
   21e14: 8b 45 0c                     	movl	12(%ebp), %eax
   21e17: b9 1f 00 00 00               	movl	$31, %ecx
   21e1c: 2b 4d fc                     	subl	-4(%ebp), %ecx
   21e1f: 88 14 08                     	movb	%dl, (%eax,%ecx)
; /Users/jiang/Desktop/fat32-boot/stdlib.cpp:4
   21e22: 8b 45 fc                     	movl	-4(%ebp), %eax
   21e25: 83 c0 01                     	addl	$1, %eax
   21e28: 89 45 fc                     	movl	%eax, -4(%ebp)
   21e2b: e9 c1 ff ff ff               	jmp	0x21df1 <_Z6to_binjPc+0x11>
; /Users/jiang/Desktop/fat32-boot/stdlib.cpp:7
   21e30: 8b 45 0c                     	movl	12(%ebp), %eax
   21e33: c6 40 1f 00                  	movb	$0, 31(%eax)
; /Users/jiang/Desktop/fat32-boot/stdlib.cpp:8
   21e37: 83 c4 04                     	addl	$4, %esp
   21e3a: 5d                           	popl	%ebp
   21e3b: c3                           	retl
   21e3c: 0f 1f 40 00                  	nopl	(%eax)

00021e40 <_Z6to_hexjPc>:
; _Z6to_hexjPc():
; /Users/jiang/Desktop/fat32-boot/stdlib.cpp:9
   21e40: 55                           	pushl	%ebp
   21e41: 89 e5                        	movl	%esp, %ebp
   21e43: 50                           	pushl	%eax
   21e44: 8b 45 0c                     	movl	12(%ebp), %eax
   21e47: 8b 45 08                     	movl	8(%ebp), %eax
; /Users/jiang/Desktop/fat32-boot/stdlib.cpp:10
   21e4a: c7 45 fc 00 00 00 00         	movl	$0, -4(%ebp)
   21e51: 83 7d fc 08                  	cmpl	$8, -4(%ebp)
   21e55: 0f 8d 42 00 00 00            	jge	0x21e9d <_Z6to_hexjPc+0x5d>
; /Users/jiang/Desktop/fat32-boot/stdlib.cpp:11
   21e5b: 8b 45 08                     	movl	8(%ebp), %eax
   21e5e: 8b 4d fc                     	movl	-4(%ebp), %ecx
   21e61: c1 e1 02                     	shll	$2, %ecx
   21e64: ba 0f 00 00 00               	movl	$15, %edx
   21e69: d3 e2                        	shll	%cl, %edx
   21e6b: 89 d1                        	movl	%edx, %ecx
   21e6d: 21 c8                        	andl	%ecx, %eax
   21e6f: 8b 4d fc                     	movl	-4(%ebp), %ecx
   21e72: c1 e1 02                     	shll	$2, %ecx
   21e75: d3 e8                        	shrl	%cl, %eax
   21e77: 83 e0 0f                     	andl	$15, %eax
   21e7a: 8a 14 05 c4 27 02 00         	movb	141252(,%eax), %dl
   21e81: 8b 45 0c                     	movl	12(%ebp), %eax
   21e84: b9 07 00 00 00               	movl	$7, %ecx
   21e89: 2b 4d fc                     	subl	-4(%ebp), %ecx
   21e8c: 88 14 08                     	movb	%dl, (%eax,%ecx)
; /Users/jiang/Desktop/fat32-boot/stdlib.cpp:10
   21e8f: 8b 45 fc                     	movl	-4(%ebp), %eax
   21e92: 83 c0 01                     	addl	$1, %eax
   21e95: 89 45 fc                     	movl	%eax, -4(%ebp)
   21e98: e9 b4 ff ff ff               	jmp	0x21e51 <_Z6to_hexjPc+0x11>
; /Users/jiang/Desktop/fat32-boot/stdlib.cpp:13
   21e9d: 8b 45 0c                     	movl	12(%ebp), %eax
   21ea0: c6 40 08 00                  	movb	$0, 8(%eax)
; /Users/jiang/Desktop/fat32-boot/stdlib.cpp:14
   21ea4: 83 c4 04                     	addl	$4, %esp
   21ea7: 5d                           	popl	%ebp
   21ea8: c3                           	retl
   21ea9: 0f 1f 80 00 00 00 00         	nopl	(%eax)

00021eb0 <_Z3powjj>:
; _Z3powjj():
; /Users/jiang/Desktop/fat32-boot/stdlib.cpp:15
   21eb0: 55                           	pushl	%ebp
   21eb1: 89 e5                        	movl	%esp, %ebp
   21eb3: 83 ec 10                     	subl	$16, %esp
   21eb6: 8b 45 0c                     	movl	12(%ebp), %eax
   21eb9: 8b 45 08                     	movl	8(%ebp), %eax
; /Users/jiang/Desktop/fat32-boot/stdlib.cpp:16
   21ebc: 8b 45 08                     	movl	8(%ebp), %eax
   21ebf: 89 45 fc                     	movl	%eax, -4(%ebp)
   21ec2: 8b 45 0c                     	movl	12(%ebp), %eax
   21ec5: 89 45 f8                     	movl	%eax, -8(%ebp)
; /Users/jiang/Desktop/fat32-boot/stdlib.cpp:17
   21ec8: 8b 45 08                     	movl	8(%ebp), %eax
   21ecb: 89 45 f4                     	movl	%eax, -12(%ebp)
   21ece: c7 45 f0 01 00 00 00         	movl	$1, -16(%ebp)
; /Users/jiang/Desktop/fat32-boot/stdlib.cpp:18
   21ed5: 83 7d 0c 00                  	cmpl	$0, 12(%ebp)
   21ed9: 0f 84 31 00 00 00            	je	0x21f10 <_Z3powjj+0x60>
; /Users/jiang/Desktop/fat32-boot/stdlib.cpp:19
   21edf: 8b 45 0c                     	movl	12(%ebp), %eax
   21ee2: 83 e0 01                     	andl	$1, %eax
   21ee5: 83 f8 00                     	cmpl	$0, %eax
   21ee8: 0f 84 0a 00 00 00            	je	0x21ef8 <_Z3powjj+0x48>
; /Users/jiang/Desktop/fat32-boot/stdlib.cpp:20
   21eee: 8b 45 f4                     	movl	-12(%ebp), %eax
   21ef1: 0f af 45 f0                  	imull	-16(%ebp), %eax
   21ef5: 89 45 f0                     	movl	%eax, -16(%ebp)
; /Users/jiang/Desktop/fat32-boot/stdlib.cpp:22
   21ef8: 8b 45 f4                     	movl	-12(%ebp), %eax
   21efb: 0f af 45 f4                  	imull	-12(%ebp), %eax
   21eff: 89 45 f4                     	movl	%eax, -12(%ebp)
; /Users/jiang/Desktop/fat32-boot/stdlib.cpp:23
   21f02: 8b 45 0c                     	movl	12(%ebp), %eax
   21f05: c1 e8 01                     	shrl	$1, %eax
   21f08: 89 45 0c                     	movl	%eax, 12(%ebp)
; /Users/jiang/Desktop/fat32-boot/stdlib.cpp:18
   21f0b: e9 c5 ff ff ff               	jmp	0x21ed5 <_Z3powjj+0x25>
; /Users/jiang/Desktop/fat32-boot/stdlib.cpp:25
   21f10: 8b 45 f0                     	movl	-16(%ebp), %eax
   21f13: 83 c4 10                     	addl	$16, %esp
   21f16: 5d                           	popl	%ebp
   21f17: c3                           	retl
   21f18: 0f 1f 84 00 00 00 00 00      	nopl	(%eax,%eax)

00021f20 <_Z6to_decjPc>:
; _Z6to_decjPc():
; /Users/jiang/Desktop/fat32-boot/stdlib.cpp:27
   21f20: 55                           	pushl	%ebp
   21f21: 89 e5                        	movl	%esp, %ebp
   21f23: 83 ec 28                     	subl	$40, %esp
   21f26: 8b 45 0c                     	movl	12(%ebp), %eax
   21f29: 8b 45 08                     	movl	8(%ebp), %eax
; /Users/jiang/Desktop/fat32-boot/stdlib.cpp:29
   21f2c: c7 45 dc 01 00 00 00         	movl	$1, -36(%ebp)
; /Users/jiang/Desktop/fat32-boot/stdlib.cpp:30
   21f33: c7 45 e0 0a 00 00 00         	movl	$10, -32(%ebp)
; /Users/jiang/Desktop/fat32-boot/stdlib.cpp:31
   21f3a: c7 45 e4 64 00 00 00         	movl	$100, -28(%ebp)
; /Users/jiang/Desktop/fat32-boot/stdlib.cpp:32
   21f41: c7 45 e8 e8 03 00 00         	movl	$1000, -24(%ebp)        # imm = 0x3E8
; /Users/jiang/Desktop/fat32-boot/stdlib.cpp:33
   21f48: c7 45 ec 10 27 00 00         	movl	$10000, -20(%ebp)       # imm = 0x2710
; /Users/jiang/Desktop/fat32-boot/stdlib.cpp:34
   21f4f: c7 45 f0 a0 86 01 00         	movl	$100000, -16(%ebp)      # imm = 0x186A0
; /Users/jiang/Desktop/fat32-boot/stdlib.cpp:35
   21f56: c7 45 f4 40 42 0f 00         	movl	$1000000, -12(%ebp)     # imm = 0xF4240
; /Users/jiang/Desktop/fat32-boot/stdlib.cpp:36
   21f5d: c7 45 f8 80 96 98 00         	movl	$10000000, -8(%ebp)     # imm = 0x989680
; /Users/jiang/Desktop/fat32-boot/stdlib.cpp:37
   21f64: c7 45 fc 00 e1 f5 05         	movl	$100000000, -4(%ebp)    # imm = 0x5F5E100
; /Users/jiang/Desktop/fat32-boot/stdlib.cpp:38
   21f6b: c7 45 d8 00 00 00 00         	movl	$0, -40(%ebp)
   21f72: 83 7d d8 08                  	cmpl	$8, -40(%ebp)
   21f76: 0f 8d 34 00 00 00            	jge	0x21fb0 <_Z6to_decjPc+0x90>
; /Users/jiang/Desktop/fat32-boot/stdlib.cpp:39
   21f7c: 8b 45 08                     	movl	8(%ebp), %eax
   21f7f: 8b 4d d8                     	movl	-40(%ebp), %ecx
   21f82: 31 d2                        	xorl	%edx, %edx
   21f84: f7 74 8d dc                  	divl	-36(%ebp,%ecx,4)
   21f88: b9 0a 00 00 00               	movl	$10, %ecx
   21f8d: 31 d2                        	xorl	%edx, %edx
   21f8f: f7 f1                        	divl	%ecx
   21f91: 83 c2 30                     	addl	$48, %edx
   21f94: 8b 45 0c                     	movl	12(%ebp), %eax
   21f97: b9 07 00 00 00               	movl	$7, %ecx
   21f9c: 2b 4d d8                     	subl	-40(%ebp), %ecx
   21f9f: 88 14 08                     	movb	%dl, (%eax,%ecx)
; /Users/jiang/Desktop/fat32-boot/stdlib.cpp:38
   21fa2: 8b 45 d8                     	movl	-40(%ebp), %eax
   21fa5: 83 c0 01                     	addl	$1, %eax
   21fa8: 89 45 d8                     	movl	%eax, -40(%ebp)
   21fab: e9 c2 ff ff ff               	jmp	0x21f72 <_Z6to_decjPc+0x52>
; /Users/jiang/Desktop/fat32-boot/stdlib.cpp:41
   21fb0: 8b 45 0c                     	movl	12(%ebp), %eax
   21fb3: c6 40 08 00                  	movb	$0, 8(%eax)
; /Users/jiang/Desktop/fat32-boot/stdlib.cpp:42
   21fb7: 83 c4 28                     	addl	$40, %esp
   21fba: 5d                           	popl	%ebp
   21fbb: c3                           	retl
   21fbc: 66 90                        	nop
   21fbe: 66 90                        	nop

00021fc0 <_Z5printPc>:
; _Z5printPc():
; /Users/jiang/Desktop/fat32-boot/debug_port0xe9.cpp:3
   21fc0: 55                           	pushl	%ebp
   21fc1: 89 e5                        	movl	%esp, %ebp
   21fc3: 83 ec 08                     	subl	$8, %esp
   21fc6: 8b 45 08                     	movl	8(%ebp), %eax
; /Users/jiang/Desktop/fat32-boot/debug_port0xe9.cpp:4
   21fc9: 8b 45 08                     	movl	8(%ebp), %eax
   21fcc: 80 38 00                     	cmpb	$0, (%eax)
   21fcf: 0f 84 24 00 00 00            	je	0x21ff9 <_Z5printPc+0x39>
; /Users/jiang/Desktop/fat32-boot/debug_port0xe9.cpp:5
   21fd5: 8b 45 08                     	movl	8(%ebp), %eax
   21fd8: c7 04 24 e9 00 00 00         	movl	$233, (%esp)
   21fdf: 0f b6 00                     	movzbl	(%eax), %eax
   21fe2: 89 44 24 04                  	movl	%eax, 4(%esp)
   21fe6: e8 45 fc ff ff               	calll	0x21c30 <_Z8out_bytesh>
; /Users/jiang/Desktop/fat32-boot/debug_port0xe9.cpp:4
   21feb: 8b 45 08                     	movl	8(%ebp), %eax
   21fee: 83 c0 01                     	addl	$1, %eax
   21ff1: 89 45 08                     	movl	%eax, 8(%ebp)
   21ff4: e9 d0 ff ff ff               	jmp	0x21fc9 <_Z5printPc+0x9>
; /Users/jiang/Desktop/fat32-boot/debug_port0xe9.cpp:7
   21ff9: 83 c4 08                     	addl	$8, %esp
   21ffc: 5d                           	popl	%ebp
   21ffd: c3                           	retl
   21ffe: 66 90                        	nop

00022000 <_Z10print_charc>:
; _Z10print_charc():
; /Users/jiang/Desktop/fat32-boot/debug_port0xe9.cpp:8
   22000: 55                           	pushl	%ebp
   22001: 89 e5                        	movl	%esp, %ebp
   22003: 83 ec 08                     	subl	$8, %esp
   22006: 8a 45 08                     	movb	8(%ebp), %al
   22009: c7 04 24 e9 00 00 00         	movl	$233, (%esp)
   22010: 0f b6 45 08                  	movzbl	8(%ebp), %eax
   22014: 89 44 24 04                  	movl	%eax, 4(%esp)
   22018: e8 13 fc ff ff               	calll	0x21c30 <_Z8out_bytesh>
   2201d: 83 c4 08                     	addl	$8, %esp
   22020: 5d                           	popl	%ebp
   22021: c3                           	retl
   22022: 66 66 66 66 66 2e 0f 1f 84 00 00 00 00 00    	nopw	%cs:(%eax,%eax)

00022030 <_Z9print_hexj>:
; _Z9print_hexj():
; /Users/jiang/Desktop/fat32-boot/debug_port0xe9.cpp:9
   22030: 55                           	pushl	%ebp
   22031: 89 e5                        	movl	%esp, %ebp
   22033: 83 ec 10                     	subl	$16, %esp
   22036: 8b 45 08                     	movl	8(%ebp), %eax
; /Users/jiang/Desktop/fat32-boot/debug_port0xe9.cpp:10
   22039: c7 45 fc 07 00 00 00         	movl	$7, -4(%ebp)
   22040: 83 7d fc 00                  	cmpl	$0, -4(%ebp)
   22044: 0f 8c 48 00 00 00            	jl	0x22092 <_Z9print_hexj+0x62>
; /Users/jiang/Desktop/fat32-boot/debug_port0xe9.cpp:11
   2204a: 8b 45 08                     	movl	8(%ebp), %eax
   2204d: 8b 4d fc                     	movl	-4(%ebp), %ecx
   22050: c1 e1 02                     	shll	$2, %ecx
   22053: ba 0f 00 00 00               	movl	$15, %edx
   22058: d3 e2                        	shll	%cl, %edx
   2205a: 89 d1                        	movl	%edx, %ecx
   2205c: 21 c8                        	andl	%ecx, %eax
   2205e: 8b 4d fc                     	movl	-4(%ebp), %ecx
   22061: c1 e1 02                     	shll	$2, %ecx
   22064: d3 e8                        	shrl	%cl, %eax
   22066: 89 45 f8                     	movl	%eax, -8(%ebp)
; /Users/jiang/Desktop/fat32-boot/debug_port0xe9.cpp:12
   22069: 8b 45 f8                     	movl	-8(%ebp), %eax
   2206c: c7 04 24 e9 00 00 00         	movl	$233, (%esp)
   22073: 0f b6 04 05 c4 27 02 00      	movzbl	141252(,%eax), %eax
   2207b: 89 44 24 04                  	movl	%eax, 4(%esp)
   2207f: e8 ac fb ff ff               	calll	0x21c30 <_Z8out_bytesh>
; /Users/jiang/Desktop/fat32-boot/debug_port0xe9.cpp:10
   22084: 8b 45 fc                     	movl	-4(%ebp), %eax
   22087: 83 c0 ff                     	addl	$-1, %eax
   2208a: 89 45 fc                     	movl	%eax, -4(%ebp)
   2208d: e9 ae ff ff ff               	jmp	0x22040 <_Z9print_hexj+0x10>
; /Users/jiang/Desktop/fat32-boot/debug_port0xe9.cpp:14
   22092: 83 c4 10                     	addl	$16, %esp
   22095: 5d                           	popl	%ebp
   22096: c3                           	retl
   22097: 66 0f 1f 84 00 00 00 00 00   	nopw	(%eax,%eax)

000220a0 <_Z9print_binj>:
; _Z9print_binj():
; /Users/jiang/Desktop/fat32-boot/debug_port0xe9.cpp:15
   220a0: 55                           	pushl	%ebp
   220a1: 89 e5                        	movl	%esp, %ebp
   220a3: 83 ec 14                     	subl	$20, %esp
   220a6: 8b 45 08                     	movl	8(%ebp), %eax
; /Users/jiang/Desktop/fat32-boot/debug_port0xe9.cpp:16
   220a9: c7 45 fc 1f 00 00 00         	movl	$31, -4(%ebp)
   220b0: 83 7d fc 00                  	cmpl	$0, -4(%ebp)
   220b4: 0f 8c 52 00 00 00            	jl	0x2210c <_Z9print_binj+0x6c>
; /Users/jiang/Desktop/fat32-boot/debug_port0xe9.cpp:17
   220ba: 8b 45 08                     	movl	8(%ebp), %eax
   220bd: 89 45 f4                     	movl	%eax, -12(%ebp)
   220c0: 8b 4d fc                     	movl	-4(%ebp), %ecx
   220c3: b8 01 00 00 00               	movl	$1, %eax
   220c8: d3 e0                        	shll	%cl, %eax
   220ca: 8b 4d f4                     	movl	-12(%ebp), %ecx
   220cd: 21 c1                        	andl	%eax, %ecx
   220cf: b0 31                        	movb	$49, %al
   220d1: b2 30                        	movb	$48, %dl
   220d3: 88 55 fa                     	movb	%dl, -6(%ebp)
   220d6: 83 f9 00                     	cmpl	$0, %ecx
   220d9: 88 45 fb                     	movb	%al, -5(%ebp)
   220dc: 0f 85 06 00 00 00            	jne	0x220e8 <_Z9print_binj+0x48>
   220e2: 8a 45 fa                     	movb	-6(%ebp), %al
   220e5: 88 45 fb                     	movb	%al, -5(%ebp)
   220e8: 8a 45 fb                     	movb	-5(%ebp), %al
; /Users/jiang/Desktop/fat32-boot/debug_port0xe9.cpp:17
   220eb: c7 04 24 e9 00 00 00         	movl	$233, (%esp)
   220f2: 0f b6 c0                     	movzbl	%al, %eax
   220f5: 89 44 24 04                  	movl	%eax, 4(%esp)
   220f9: e8 32 fb ff ff               	calll	0x21c30 <_Z8out_bytesh>
; /Users/jiang/Desktop/fat32-boot/debug_port0xe9.cpp:16
   220fe: 8b 45 fc                     	movl	-4(%ebp), %eax
   22101: 83 c0 ff                     	addl	$-1, %eax
   22104: 89 45 fc                     	movl	%eax, -4(%ebp)
   22107: e9 a4 ff ff ff               	jmp	0x220b0 <_Z9print_binj+0x10>
; /Users/jiang/Desktop/fat32-boot/debug_port0xe9.cpp:19
   2210c: 83 c4 14                     	addl	$20, %esp
   2210f: 5d                           	popl	%ebp
   22110: c3                           	retl
   22111: 66 90                        	nop
   22113: 66 90                        	nop
   22115: 66 90                        	nop
   22117: 66 90                        	nop
   22119: 66 90                        	nop
   2211b: 66 90                        	nop
   2211d: 66 90                        	nop
   2211f: 90                           	nop

00022120 <_Z8font_getiii>:
; _Z8font_getiii():
; /Users/jiang/Desktop/fat32-boot/font1.c:3
   22120: 55                           	pushl	%ebp
   22121: 89 e5                        	movl	%esp, %ebp
   22123: 8b 45 10                     	movl	16(%ebp), %eax
   22126: 8b 45 0c                     	movl	12(%ebp), %eax
   22129: 8b 45 08                     	movl	8(%ebp), %eax
   2212c: 8b 4d 08                     	movl	8(%ebp), %ecx
   2212f: 8d 05 fe 2f 02 00            	leal	143358, %eax
   22135: c1 e1 04                     	shll	$4, %ecx
   22138: 01 c8                        	addl	%ecx, %eax
   2213a: 8b 4d 0c                     	movl	12(%ebp), %ecx
   2213d: 0f b6 04 08                  	movzbl	(%eax,%ecx), %eax
   22141: b9 07 00 00 00               	movl	$7, %ecx
   22146: 2b 4d 10                     	subl	16(%ebp), %ecx
   22149: ba 01 00 00 00               	movl	$1, %edx
   2214e: d3 e2                        	shll	%cl, %edx
   22150: 89 d1                        	movl	%edx, %ecx
   22152: 21 c8                        	andl	%ecx, %eax
   22154: 83 f8 00                     	cmpl	$0, %eax
   22157: 0f 95 c0                     	setne	%al
   2215a: 24 01                        	andb	$1, %al
   2215c: 0f b6 c0                     	movzbl	%al, %eax
   2215f: 5d                           	popl	%ebp
   22160: c3                           	retl
   22161: 66 66 66 66 66 66 2e 0f 1f 84 00 00 00 00 00 	nopw	%cs:(%eax,%eax)

00022170 <_Z4drawiiiPcii>:
; _Z4drawiiiPcii():
; /Users/jiang/Desktop/fat32-boot/font1.c:4
   22170: 55                           	pushl	%ebp
   22171: 89 e5                        	movl	%esp, %ebp
   22173: 83 ec 1c                     	subl	$28, %esp
   22176: 8b 45 1c                     	movl	28(%ebp), %eax
   22179: 8b 45 18                     	movl	24(%ebp), %eax
   2217c: 8b 45 14                     	movl	20(%ebp), %eax
   2217f: 8b 45 10                     	movl	16(%ebp), %eax
   22182: 8b 45 0c                     	movl	12(%ebp), %eax
   22185: 8b 45 08                     	movl	8(%ebp), %eax
; /Users/jiang/Desktop/fat32-boot/font1.c:5
   22188: c7 45 fc 00 00 00 00         	movl	$0, -4(%ebp)
   2218f: 83 7d fc 10                  	cmpl	$16, -4(%ebp)
   22193: 0f 8d f6 00 00 00            	jge	0x2228f <_Z4drawiiiPcii+0x11f>
; /Users/jiang/Desktop/fat32-boot/font1.c:6
   22199: c7 45 f8 00 00 00 00         	movl	$0, -8(%ebp)
   221a0: 83 7d f8 08                  	cmpl	$8, -8(%ebp)
   221a4: 0f 8d d2 00 00 00            	jge	0x2227c <_Z4drawiiiPcii+0x10c>
; /Users/jiang/Desktop/fat32-boot/font1.c:7
   221aa: 8b 45 0c                     	movl	12(%ebp), %eax
   221ad: 03 45 fc                     	addl	-4(%ebp), %eax
   221b0: 0f af 45 18                  	imull	24(%ebp), %eax
   221b4: 89 45 f0                     	movl	%eax, -16(%ebp)
   221b7: 8b 45 10                     	movl	16(%ebp), %eax
   221ba: 03 45 f8                     	addl	-8(%ebp), %eax
   221bd: 0f af 45 1c                  	imull	28(%ebp), %eax
   221c1: b9 08 00 00 00               	movl	$8, %ecx
   221c6: 99                           	cltd
   221c7: f7 f9                        	idivl	%ecx
   221c9: 89 c1                        	movl	%eax, %ecx
   221cb: 8b 45 f0                     	movl	-16(%ebp), %eax
   221ce: 01 c8                        	addl	%ecx, %eax
   221d0: 89 45 f4                     	movl	%eax, -12(%ebp)
; /Users/jiang/Desktop/fat32-boot/font1.c:8
   221d3: 8b 55 08                     	movl	8(%ebp), %edx
   221d6: 8b 4d fc                     	movl	-4(%ebp), %ecx
   221d9: 8b 45 f8                     	movl	-8(%ebp), %eax
   221dc: 89 14 24                     	movl	%edx, (%esp)
   221df: 89 4c 24 04                  	movl	%ecx, 4(%esp)
   221e3: 89 44 24 08                  	movl	%eax, 8(%esp)
   221e7: e8 34 ff ff ff               	calll	0x22120 <_Z8font_getiii>
   221ec: 88 c2                        	movb	%al, %dl
   221ee: 31 c0                        	xorl	%eax, %eax
   221f0: b9 ff 00 00 00               	movl	$255, %ecx
   221f5: f6 c2 01                     	testb	$1, %dl
   221f8: 0f 45 c1                     	cmovnel	%ecx, %eax
   221fb: 88 c2                        	movb	%al, %dl
   221fd: 8b 45 14                     	movl	20(%ebp), %eax
   22200: 8b 4d f4                     	movl	-12(%ebp), %ecx
   22203: 88 14 08                     	movb	%dl, (%eax,%ecx)
; /Users/jiang/Desktop/fat32-boot/font1.c:9
   22206: 8b 55 08                     	movl	8(%ebp), %edx
   22209: 8b 4d fc                     	movl	-4(%ebp), %ecx
   2220c: 8b 45 f8                     	movl	-8(%ebp), %eax
   2220f: 89 14 24                     	movl	%edx, (%esp)
   22212: 89 4c 24 04                  	movl	%ecx, 4(%esp)
   22216: 89 44 24 08                  	movl	%eax, 8(%esp)
   2221a: e8 01 ff ff ff               	calll	0x22120 <_Z8font_getiii>
   2221f: 88 c2                        	movb	%al, %dl
   22221: 31 c0                        	xorl	%eax, %eax
   22223: b9 ff 00 00 00               	movl	$255, %ecx
   22228: f6 c2 01                     	testb	$1, %dl
   2222b: 0f 45 c1                     	cmovnel	%ecx, %eax
   2222e: 88 c2                        	movb	%al, %dl
   22230: 8b 45 14                     	movl	20(%ebp), %eax
   22233: 8b 4d f4                     	movl	-12(%ebp), %ecx
   22236: 88 54 08 01                  	movb	%dl, 1(%eax,%ecx)
; /Users/jiang/Desktop/fat32-boot/font1.c:10
   2223a: 8b 55 08                     	movl	8(%ebp), %edx
   2223d: 8b 4d fc                     	movl	-4(%ebp), %ecx
   22240: 8b 45 f8                     	movl	-8(%ebp), %eax
   22243: 89 14 24                     	movl	%edx, (%esp)
   22246: 89 4c 24 04                  	movl	%ecx, 4(%esp)
   2224a: 89 44 24 08                  	movl	%eax, 8(%esp)
   2224e: e8 cd fe ff ff               	calll	0x22120 <_Z8font_getiii>
   22253: 88 c2                        	movb	%al, %dl
   22255: 31 c0                        	xorl	%eax, %eax
   22257: b9 ff 00 00 00               	movl	$255, %ecx
   2225c: f6 c2 01                     	testb	$1, %dl
   2225f: 0f 45 c1                     	cmovnel	%ecx, %eax
   22262: 88 c2                        	movb	%al, %dl
   22264: 8b 45 14                     	movl	20(%ebp), %eax
   22267: 8b 4d f4                     	movl	-12(%ebp), %ecx
   2226a: 88 54 08 02                  	movb	%dl, 2(%eax,%ecx)
; /Users/jiang/Desktop/fat32-boot/font1.c:6
   2226e: 8b 45 f8                     	movl	-8(%ebp), %eax
   22271: 83 c0 01                     	addl	$1, %eax
   22274: 89 45 f8                     	movl	%eax, -8(%ebp)
   22277: e9 24 ff ff ff               	jmp	0x221a0 <_Z4drawiiiPcii+0x30>
; /Users/jiang/Desktop/fat32-boot/font1.c:12
   2227c: e9 00 00 00 00               	jmp	0x22281 <_Z4drawiiiPcii+0x111>
; /Users/jiang/Desktop/fat32-boot/font1.c:5
   22281: 8b 45 fc                     	movl	-4(%ebp), %eax
   22284: 83 c0 01                     	addl	$1, %eax
   22287: 89 45 fc                     	movl	%eax, -4(%ebp)
   2228a: e9 00 ff ff ff               	jmp	0x2218f <_Z4drawiiiPcii+0x1f>
; /Users/jiang/Desktop/fat32-boot/font1.c:13
   2228f: 83 c4 1c                     	addl	$28, %esp
   22292: 5d                           	popl	%ebp
   22293: c3                           	retl
   22294: 66 66 66 2e 0f 1f 84 00 00 00 00 00  	nopw	%cs:(%eax,%eax)

000222a0 <_Z5drawsPKciiPcii>:
; _Z5drawsPKciiPcii():
; /Users/jiang/Desktop/fat32-boot/font1.c:15
   222a0: 55                           	pushl	%ebp
   222a1: 89 e5                        	movl	%esp, %ebp
   222a3: 53                           	pushl	%ebx
   222a4: 57                           	pushl	%edi
   222a5: 56                           	pushl	%esi
   222a6: 83 ec 18                     	subl	$24, %esp
   222a9: 8b 45 1c                     	movl	28(%ebp), %eax
   222ac: 8b 45 18                     	movl	24(%ebp), %eax
   222af: 8b 45 14                     	movl	20(%ebp), %eax
   222b2: 8b 45 10                     	movl	16(%ebp), %eax
   222b5: 8b 45 0c                     	movl	12(%ebp), %eax
   222b8: 8b 45 08                     	movl	8(%ebp), %eax
; /Users/jiang/Desktop/fat32-boot/font1.c:16
   222bb: 8b 45 08                     	movl	8(%ebp), %eax
   222be: 80 38 00                     	cmpb	$0, (%eax)
   222c1: 0f 84 48 00 00 00            	je	0x2230f <_Z5drawsPKciiPcii+0x6f>
; /Users/jiang/Desktop/fat32-boot/font1.c:27
   222c7: 8b 45 08                     	movl	8(%ebp), %eax
   222ca: 0f be 18                     	movsbl	(%eax), %ebx
   222cd: 8b 7d 0c                     	movl	12(%ebp), %edi
   222d0: 8b 75 10                     	movl	16(%ebp), %esi
   222d3: 8b 55 14                     	movl	20(%ebp), %edx
   222d6: 8b 4d 18                     	movl	24(%ebp), %ecx
   222d9: 8b 45 1c                     	movl	28(%ebp), %eax
   222dc: 89 1c 24                     	movl	%ebx, (%esp)
   222df: 89 7c 24 04                  	movl	%edi, 4(%esp)
   222e3: 89 74 24 08                  	movl	%esi, 8(%esp)
   222e7: 89 54 24 0c                  	movl	%edx, 12(%esp)
   222eb: 89 4c 24 10                  	movl	%ecx, 16(%esp)
   222ef: 89 44 24 14                  	movl	%eax, 20(%esp)
   222f3: e8 78 fe ff ff               	calll	0x22170 <_Z4drawiiiPcii>
; /Users/jiang/Desktop/fat32-boot/font1.c:28
   222f8: 8b 45 10                     	movl	16(%ebp), %eax
   222fb: 83 c0 08                     	addl	$8, %eax
   222fe: 89 45 10                     	movl	%eax, 16(%ebp)
; /Users/jiang/Desktop/fat32-boot/font1.c:16
   22301: 8b 45 08                     	movl	8(%ebp), %eax
   22304: 83 c0 01                     	addl	$1, %eax
   22307: 89 45 08                     	movl	%eax, 8(%ebp)
   2230a: e9 ac ff ff ff               	jmp	0x222bb <_Z5drawsPKciiPcii+0x1b>
; /Users/jiang/Desktop/fat32-boot/font1.c:30
   2230f: 83 c4 18                     	addl	$24, %esp
   22312: 5e                           	popl	%esi
   22313: 5f                           	popl	%edi
   22314: 5b                           	popl	%ebx
   22315: 5d                           	popl	%ebp
   22316: c3                           	retl
   22317: 66 90                        	nop
   22319: 66 90                        	nop
   2231b: 66 90                        	nop
   2231d: 66 90                        	nop
   2231f: 90                           	nop

00022320 <_Z6getkeyPc>:
; _Z6getkeyPc():
; /Users/jiang/Desktop/fat32-boot/ps2keyboard.cpp:3
   22320: 55                           	pushl	%ebp
   22321: 89 e5                        	movl	%esp, %ebp
   22323: 83 ec 08                     	subl	$8, %esp
   22326: 8b 45 08                     	movl	8(%ebp), %eax
; /Users/jiang/Desktop/fat32-boot/ps2keyboard.cpp:4
   22329: 8d 05 d5 27 02 00            	leal	141269, %eax
   2232f: 89 04 24                     	movl	%eax, (%esp)
   22332: e8 89 fc ff ff               	calll	0x21fc0 <_Z5printPc>
; /Users/jiang/Desktop/fat32-boot/ps2keyboard.cpp:5
   22337: 8d 05 30 27 02 00            	leal	141104, %eax
   2233d: 89 04 24                     	movl	%eax, (%esp)
   22340: e8 7b fc ff ff               	calll	0x21fc0 <_Z5printPc>
; /Users/jiang/Desktop/fat32-boot/ps2keyboard.cpp:6
   22345: a1 88 4a 02 00               	movl	150152, %eax
   2234a: 89 04 24                     	movl	%eax, (%esp)
   2234d: e8 de fc ff ff               	calll	0x22030 <_Z9print_hexj>
; /Users/jiang/Desktop/fat32-boot/ps2keyboard.cpp:7
   22352: 8d 05 37 27 02 00            	leal	141111, %eax
   22358: 89 04 24                     	movl	%eax, (%esp)
   2235b: e8 60 fc ff ff               	calll	0x21fc0 <_Z5printPc>
; /Users/jiang/Desktop/fat32-boot/ps2keyboard.cpp:8
   22360: a1 8c 4a 02 00               	movl	150156, %eax
   22365: 89 04 24                     	movl	%eax, (%esp)
   22368: e8 c3 fc ff ff               	calll	0x22030 <_Z9print_hexj>
; /Users/jiang/Desktop/fat32-boot/ps2keyboard.cpp:9
   2236d: 8d 05 7f 27 02 00            	leal	141183, %eax
   22373: 89 04 24                     	movl	%eax, (%esp)
   22376: e8 45 fc ff ff               	calll	0x21fc0 <_Z5printPc>
; /Users/jiang/Desktop/fat32-boot/ps2keyboard.cpp:10
   2237b: a1 8c 4a 02 00               	movl	150156, %eax
   22380: 3b 05 88 4a 02 00            	cmpl	150152, %eax
   22386: 0f 85 09 00 00 00            	jne	0x22395 <_Z6getkeyPc+0x75>
; /Users/jiang/Desktop/fat32-boot/ps2keyboard.cpp:11
   2238c: c6 45 ff 00                  	movb	$0, -1(%ebp)
   22390: e9 5d 00 00 00               	jmp	0x223f2 <_Z6getkeyPc+0xd2>
; /Users/jiang/Desktop/fat32-boot/ps2keyboard.cpp:13
   22395: a1 8c 4a 02 00               	movl	150156, %eax
   2239a: 89 c1                        	movl	%eax, %ecx
   2239c: 83 c1 01                     	addl	$1, %ecx
   2239f: 89 0d 8c 4a 02 00            	movl	%ecx, 150156
   223a5: 8a 0c 05 88 49 02 00         	movb	149896(,%eax), %cl
   223ac: 8b 45 08                     	movl	8(%ebp), %eax
   223af: 88 08                        	movb	%cl, (%eax)
; /Users/jiang/Desktop/fat32-boot/ps2keyboard.cpp:14
   223b1: a1 8c 4a 02 00               	movl	150156, %eax
   223b6: b9 00 01 00 00               	movl	$256, %ecx              # imm = 0x100
   223bb: 99                           	cltd
   223bc: f7 f9                        	idivl	%ecx
   223be: 89 15 8c 4a 02 00            	movl	%edx, 150156
; /Users/jiang/Desktop/fat32-boot/ps2keyboard.cpp:15
   223c4: 8d 05 d9 27 02 00            	leal	141273, %eax
   223ca: 89 04 24                     	movl	%eax, (%esp)
   223cd: e8 ee fb ff ff               	calll	0x21fc0 <_Z5printPc>
; /Users/jiang/Desktop/fat32-boot/ps2keyboard.cpp:16
   223d2: 8b 45 08                     	movl	8(%ebp), %eax
   223d5: 0f be 00                     	movsbl	(%eax), %eax
   223d8: 89 04 24                     	movl	%eax, (%esp)
   223db: e8 50 fc ff ff               	calll	0x22030 <_Z9print_hexj>
; /Users/jiang/Desktop/fat32-boot/ps2keyboard.cpp:17
   223e0: 8d 05 7f 27 02 00            	leal	141183, %eax
   223e6: 89 04 24                     	movl	%eax, (%esp)
   223e9: e8 d2 fb ff ff               	calll	0x21fc0 <_Z5printPc>
; /Users/jiang/Desktop/fat32-boot/ps2keyboard.cpp:18
   223ee: c6 45 ff 01                  	movb	$1, -1(%ebp)
; /Users/jiang/Desktop/fat32-boot/ps2keyboard.cpp:19
   223f2: 8a 45 ff                     	movb	-1(%ebp), %al
   223f5: 24 01                        	andb	$1, %al
   223f7: 0f b6 c0                     	movzbl	%al, %eax
   223fa: 83 c4 08                     	addl	$8, %esp
   223fd: 5d                           	popl	%ebp
   223fe: c3                           	retl

Disassembly of section .text._Z3maxIiET_S0_S0_:

00022400 <_Z3maxIiET_S0_S0_>:
; _Z3maxIiET_S0_S0_():
; /Users/jiang/Desktop/fat32-boot/./stdlib.h:3
   22400: 55                           	pushl	%ebp
   22401: 89 e5                        	movl	%esp, %ebp
   22403: 50                           	pushl	%eax
   22404: 8b 45 0c                     	movl	12(%ebp), %eax
   22407: 8b 45 08                     	movl	8(%ebp), %eax
   2240a: 8b 45 08                     	movl	8(%ebp), %eax
   2240d: 3b 45 0c                     	cmpl	12(%ebp), %eax
   22410: 0f 8e 0b 00 00 00            	jle	0x22421 <_Z3maxIiET_S0_S0_+0x21>
   22416: 8b 45 08                     	movl	8(%ebp), %eax
   22419: 89 45 fc                     	movl	%eax, -4(%ebp)
   2241c: e9 06 00 00 00               	jmp	0x22427 <_Z3maxIiET_S0_S0_+0x27>
   22421: 8b 45 0c                     	movl	12(%ebp), %eax
   22424: 89 45 fc                     	movl	%eax, -4(%ebp)
   22427: 8b 45 fc                     	movl	-4(%ebp), %eax
; /Users/jiang/Desktop/fat32-boot/./stdlib.h:3
   2242a: 83 c4 04                     	addl	$4, %esp
   2242d: 5d                           	popl	%ebp
   2242e: c3                           	retl

Disassembly of section .text._Z3minIiET_S0_S0_:

00022430 <_Z3minIiET_S0_S0_>:
; _Z3minIiET_S0_S0_():
; /Users/jiang/Desktop/fat32-boot/./stdlib.h:2
   22430: 55                           	pushl	%ebp
   22431: 89 e5                        	movl	%esp, %ebp
   22433: 50                           	pushl	%eax
   22434: 8b 45 0c                     	movl	12(%ebp), %eax
   22437: 8b 45 08                     	movl	8(%ebp), %eax
   2243a: 8b 45 08                     	movl	8(%ebp), %eax
   2243d: 3b 45 0c                     	cmpl	12(%ebp), %eax
   22440: 0f 8d 0b 00 00 00            	jge	0x22451 <_Z3minIiET_S0_S0_+0x21>
   22446: 8b 45 08                     	movl	8(%ebp), %eax
   22449: 89 45 fc                     	movl	%eax, -4(%ebp)
   2244c: e9 06 00 00 00               	jmp	0x22457 <_Z3minIiET_S0_S0_+0x27>
   22451: 8b 45 0c                     	movl	12(%ebp), %eax
   22454: 89 45 fc                     	movl	%eax, -4(%ebp)
   22457: 8b 45 fc                     	movl	-4(%ebp), %eax
; /Users/jiang/Desktop/fat32-boot/./stdlib.h:2
   2245a: 83 c4 04                     	addl	$4, %esp
   2245d: 5d                           	popl	%ebp
   2245e: c3                           	retl

Disassembly of section .text._Z7io_waitv:

00022460 <_Z7io_waitv>:
; _Z7io_waitv():
; /Users/jiang/Desktop/fat32-boot/int.cpp:3
   22460: 55                           	pushl	%ebp
   22461: 89 e5                        	movl	%esp, %ebp
   22463: 83 ec 08                     	subl	$8, %esp
   22466: 31 c0                        	xorl	%eax, %eax
   22468: c7 04 24 80 00 00 00         	movl	$128, (%esp)
   2246f: c7 44 24 04 00 00 00 00      	movl	$0, 4(%esp)
   22477: e8 b4 f7 ff ff               	calll	0x21c30 <_Z8out_bytesh>
   2247c: 83 c4 08                     	addl	$8, %esp
   2247f: 5d                           	popl	%ebp
   22480: c3                           	retl

Disassembly of section .text._Z10mouse_waith:

00022490 <_Z10mouse_waith>:
; _Z10mouse_waith():
; /Users/jiang/Desktop/fat32-boot/ps2mouse.cpp:6
   22490: 55                           	pushl	%ebp
   22491: 89 e5                        	movl	%esp, %ebp
   22493: 83 ec 08                     	subl	$8, %esp
   22496: 8a 45 08                     	movb	8(%ebp), %al
; /Users/jiang/Desktop/fat32-boot/ps2mouse.cpp:7
   22499: c7 45 fc a0 86 01 00         	movl	$100000, -4(%ebp)       # imm = 0x186A0
; /Users/jiang/Desktop/fat32-boot/ps2mouse.cpp:8
   224a0: 0f b6 45 08                  	movzbl	8(%ebp), %eax
   224a4: 83 f8 00                     	cmpl	$0, %eax
   224a7: 0f 85 43 00 00 00            	jne	0x224f0 <_Z10mouse_waith+0x60>
; /Users/jiang/Desktop/fat32-boot/ps2mouse.cpp:9
   224ad: e9 00 00 00 00               	jmp	0x224b2 <_Z10mouse_waith+0x22>
   224b2: 8b 45 fc                     	movl	-4(%ebp), %eax
   224b5: 89 c1                        	movl	%eax, %ecx
   224b7: 83 c1 ff                     	addl	$-1, %ecx
   224ba: 89 4d fc                     	movl	%ecx, -4(%ebp)
   224bd: 83 f8 00                     	cmpl	$0, %eax
   224c0: 0f 84 25 00 00 00            	je	0x224eb <_Z10mouse_waith+0x5b>
; /Users/jiang/Desktop/fat32-boot/ps2mouse.cpp:11
   224c6: c7 04 24 64 00 00 00         	movl	$100, (%esp)
   224cd: e8 fe f6 ff ff               	calll	0x21bd0 <_Z7in_bytes>
   224d2: 0f b6 c0                     	movzbl	%al, %eax
   224d5: 83 e0 01                     	andl	$1, %eax
   224d8: 83 f8 01                     	cmpl	$1, %eax
   224db: 0f 85 05 00 00 00            	jne	0x224e6 <_Z10mouse_waith+0x56>
; /Users/jiang/Desktop/fat32-boot/ps2mouse.cpp:12
   224e1: e9 4d 00 00 00               	jmp	0x22533 <_Z10mouse_waith+0xa3>
; /Users/jiang/Desktop/fat32-boot/ps2mouse.cpp:9
   224e6: e9 c7 ff ff ff               	jmp	0x224b2 <_Z10mouse_waith+0x22>
; /Users/jiang/Desktop/fat32-boot/ps2mouse.cpp:15
   224eb: e9 43 00 00 00               	jmp	0x22533 <_Z10mouse_waith+0xa3>
; /Users/jiang/Desktop/fat32-boot/ps2mouse.cpp:17
   224f0: e9 00 00 00 00               	jmp	0x224f5 <_Z10mouse_waith+0x65>
   224f5: 8b 45 fc                     	movl	-4(%ebp), %eax
   224f8: 89 c1                        	movl	%eax, %ecx
   224fa: 83 c1 ff                     	addl	$-1, %ecx
   224fd: 89 4d fc                     	movl	%ecx, -4(%ebp)
   22500: 83 f8 00                     	cmpl	$0, %eax
   22503: 0f 84 25 00 00 00            	je	0x2252e <_Z10mouse_waith+0x9e>
; /Users/jiang/Desktop/fat32-boot/ps2mouse.cpp:19
   22509: c7 04 24 64 00 00 00         	movl	$100, (%esp)
   22510: e8 bb f6 ff ff               	calll	0x21bd0 <_Z7in_bytes>
   22515: 0f b6 c0                     	movzbl	%al, %eax
   22518: 83 e0 02                     	andl	$2, %eax
   2251b: 83 f8 00                     	cmpl	$0, %eax
   2251e: 0f 85 05 00 00 00            	jne	0x22529 <_Z10mouse_waith+0x99>
; /Users/jiang/Desktop/fat32-boot/ps2mouse.cpp:20
   22524: e9 0a 00 00 00               	jmp	0x22533 <_Z10mouse_waith+0xa3>
; /Users/jiang/Desktop/fat32-boot/ps2mouse.cpp:17
   22529: e9 c7 ff ff ff               	jmp	0x224f5 <_Z10mouse_waith+0x65>
; /Users/jiang/Desktop/fat32-boot/ps2mouse.cpp:23
   2252e: e9 00 00 00 00               	jmp	0x22533 <_Z10mouse_waith+0xa3>
; /Users/jiang/Desktop/fat32-boot/ps2mouse.cpp:25
   22533: 83 c4 08                     	addl	$8, %esp
   22536: 5d                           	popl	%ebp
   22537: c3                           	retl

Disassembly of section .text._Z11mouse_writeh:

00022540 <_Z11mouse_writeh>:
; _Z11mouse_writeh():
; /Users/jiang/Desktop/fat32-boot/ps2mouse.cpp:28
   22540: 55                           	pushl	%ebp
   22541: 89 e5                        	movl	%esp, %ebp
   22543: 83 ec 08                     	subl	$8, %esp
   22546: 8a 45 08                     	movb	8(%ebp), %al
; /Users/jiang/Desktop/fat32-boot/ps2mouse.cpp:30
   22549: c7 04 24 01 00 00 00         	movl	$1, (%esp)
   22550: e8 3b ff ff ff               	calll	0x22490 <_Z10mouse_waith>
; /Users/jiang/Desktop/fat32-boot/ps2mouse.cpp:32
   22555: c7 04 24 64 00 00 00         	movl	$100, (%esp)
   2255c: c7 44 24 04 d4 00 00 00      	movl	$212, 4(%esp)
   22564: e8 c7 f6 ff ff               	calll	0x21c30 <_Z8out_bytesh>
; /Users/jiang/Desktop/fat32-boot/ps2mouse.cpp:34
   22569: c7 04 24 01 00 00 00         	movl	$1, (%esp)
   22570: e8 1b ff ff ff               	calll	0x22490 <_Z10mouse_waith>
; /Users/jiang/Desktop/fat32-boot/ps2mouse.cpp:36
   22575: c7 04 24 60 00 00 00         	movl	$96, (%esp)
   2257c: 0f b6 45 08                  	movzbl	8(%ebp), %eax
   22580: 89 44 24 04                  	movl	%eax, 4(%esp)
   22584: e8 a7 f6 ff ff               	calll	0x21c30 <_Z8out_bytesh>
; /Users/jiang/Desktop/fat32-boot/ps2mouse.cpp:37
   22589: 83 c4 08                     	addl	$8, %esp
   2258c: 5d                           	popl	%ebp
   2258d: c3                           	retl
